	.text
	.syntax unified
	.eabi_attribute	67, "2.09"	@ Tag_conformance
	.cpu	cortex-a8
	.eabi_attribute	6, 10	@ Tag_CPU_arch
	.eabi_attribute	7, 65	@ Tag_CPU_arch_profile
	.eabi_attribute	8, 1	@ Tag_ARM_ISA_use
	.eabi_attribute	9, 2	@ Tag_THUMB_ISA_use
	.fpu	neon
	.eabi_attribute	17, 1	@ Tag_ABI_PCS_GOT_use
	.eabi_attribute	20, 2	@ Tag_ABI_FP_denormal
	.eabi_attribute	23, 1	@ Tag_ABI_FP_number_model
	.eabi_attribute	34, 1	@ Tag_CPU_unaligned_access
	.eabi_attribute	24, 1	@ Tag_ABI_align_needed
	.eabi_attribute	25, 1	@ Tag_ABI_align_preserved
	.eabi_attribute	28, 1	@ Tag_ABI_VFP_args
	.eabi_attribute	38, 1	@ Tag_ABI_FP_16bit_format
	.eabi_attribute	18, 4	@ Tag_ABI_PCS_wchar_t
	.eabi_attribute	26, 2	@ Tag_ABI_enum_size
	.eabi_attribute	14, 0	@ Tag_ABI_PCS_R9_use
	.eabi_attribute	68, 1	@ Tag_Virtualization_use
	.file	"/root/Bela/projects/frek_domen_filtriranje/build/render.bc"
	.file	1 "/usr/bin/../lib/gcc/arm-linux-gnueabihf/6.3.0/../../../../include/arm-linux-gnueabihf/c++/6.3.0/bits" "c++config.h"
	.file	2 "/usr/bin/../lib/gcc/arm-linux-gnueabihf/6.3.0/../../../../include/arm-linux-gnueabihf/c++/6.3.0/bits" "atomic_word.h"
	.file	3 "/usr/bin/../lib/gcc/arm-linux-gnueabihf/6.3.0/../../../../include/c++/6.3.0/bits" "ios_base.h"
	.file	4 "/usr/bin/../lib/gcc/arm-linux-gnueabihf/6.3.0/../../../../include/c++/6.3.0" "iostream"
	.file	5 "/root/Bela/projects/frek_domen_filtriranje" "render.cpp"
	.file	6 "/usr/bin/../lib/gcc/arm-linux-gnueabihf/6.3.0/../../../../include/c++/6.3.0/bits" "alloc_traits.h"
	.file	7 "/usr/bin/../lib/gcc/arm-linux-gnueabihf/6.3.0/../../../../include/c++/6.3.0/ext" "new_allocator.h"
	.file	8 "/usr/bin/../lib/gcc/arm-linux-gnueabihf/6.3.0/../../../../include/arm-linux-gnueabihf/c++/6.3.0/bits" "c++allocator.h"
	.file	9 "/usr/bin/../lib/gcc/arm-linux-gnueabihf/6.3.0/../../../../include/c++/6.3.0/bits" "allocator.h"
	.file	10 "/usr/bin/../lib/gcc/arm-linux-gnueabihf/6.3.0/../../../../include/c++/6.3.0/ext" "alloc_traits.h"
	.file	11 "/usr/bin/../lib/gcc/arm-linux-gnueabihf/6.3.0/../../../../include/c++/6.3.0/bits" "stl_vector.h"
	.file	12 "/usr/bin/../lib/gcc/arm-linux-gnueabihf/6.3.0/../../../../include/c++/6.3.0/bits" "stl_iterator.h"
	.file	13 "/usr/bin/../lib/gcc/arm-linux-gnueabihf/6.3.0/../../../../include/c++/6.3.0/bits" "stl_iterator_base_types.h"
	.file	14 "/usr/bin/../lib/gcc/arm-linux-gnueabihf/6.3.0/../../../../include/c++/6.3.0" "type_traits"
	.file	15 "/usr/include/ne10" "NE10_types.h"
	.file	16 "./libraries/Fft" "Fft.h"
	.file	17 "/usr/bin/../lib/gcc/arm-linux-gnueabihf/6.3.0/../../../../include/c++/6.3.0/ext" "concurrence.h"
	.file	18 "/usr/bin/../lib/gcc/arm-linux-gnueabihf/6.3.0/../../../../include/c++/6.3.0/bits" "cpp_type_traits.h"
	.file	19 "/usr/bin/../lib/gcc/arm-linux-gnueabihf/6.3.0/../../../../include/c++/6.3.0/bits" "basic_string.h"
	.file	20 "/usr/bin/../lib/gcc/arm-linux-gnueabihf/6.3.0/../../../../include/c++/6.3.0/bits" "postypes.h"
	.file	21 "/usr/bin/../lib/gcc/arm-linux-gnueabihf/6.3.0/../../../../include/c++/6.3.0/bits" "char_traits.h"
	.file	22 "/usr/bin/../lib/gcc/arm-linux-gnueabihf/6.3.0/../../../../include/c++/6.3.0" "sstream"
	.file	23 "/usr/include" "wchar.h"
	.file	24 "/usr/lib/llvm-3.9/bin/../lib/clang/3.9.1/include" "stddef.h"
	.file	25 "/usr/include" "libio.h"
	.file	26 "/usr/include/arm-linux-gnueabihf/bits" "types.h"
	.file	27 "/usr/include" "stdio.h"
	.file	28 "/usr/lib/llvm-3.9/bin/../lib/clang/3.9.1/include" "stdarg.h"
	.file	29 "/usr/bin/../lib/gcc/arm-linux-gnueabihf/6.3.0/../../../../include/c++/6.3.0/bits" "exception_ptr.h"
	.file	30 "/usr/bin/../lib/gcc/arm-linux-gnueabihf/6.3.0/../../../../include/c++/6.3.0/debug" "debug.h"
	.file	31 "/usr/include" "stdint.h"
	.file	32 "/usr/include" "locale.h"
	.file	33 "/usr/include" "ctype.h"
	.file	34 "/usr/include" "stdlib.h"
	.file	35 "/usr/include/arm-linux-gnueabihf/bits" "stdlib-float.h"
	.file	36 "/usr/include/arm-linux-gnueabihf/bits" "stdlib-bsearch.h"
	.file	37 "/usr/bin/../lib/gcc/arm-linux-gnueabihf/6.3.0/../../../../include/c++/6.3.0" "cstdlib"
	.file	38 "/usr/include" "_G_config.h"
	.file	39 "/usr/include/arm-linux-gnueabihf/bits" "stdio.h"
	.file	40 "/usr/include" "wctype.h"
	.file	41 "/usr/include/arm-linux-gnueabihf/bits" "math-finite.h"
	.file	42 "/usr/include/arm-linux-gnueabihf/bits" "mathcalls.h"
	.file	43 "/usr/include/arm-linux-gnueabihf/bits" "mathdef.h"
	.file	44 "/usr/include" "time.h"
	.file	45 "/root/Bela/projects/frek_domen_filtriranje/build" "render.cpp"
	.section	.text._ZNSt6vectorIfSaIfEED2Ev,"axG",%progbits,_ZNSt6vectorIfSaIfEED2Ev,comdat
	.weak	_ZNSt6vectorIfSaIfEED2Ev
	.p2align	2
	.type	_ZNSt6vectorIfSaIfEED2Ev,%function
_ZNSt6vectorIfSaIfEED2Ev:               @ @_ZNSt6vectorIfSaIfEED2Ev
.Lfunc_begin0:
	.loc	11 426 0                @ /usr/bin/../lib/gcc/arm-linux-gnueabihf/6.3.0/../../../../include/c++/6.3.0/bits/stl_vector.h:426:0
	.fnstart
	.cfi_startproc
@ BB#0:
	.save	{r4, r10, r11, lr}
	push	{r4, r10, r11, lr}
.Ltmp0:
	.cfi_def_cfa_offset 16
.Ltmp1:
	.cfi_offset lr, -4
.Ltmp2:
	.cfi_offset r11, -8
.Ltmp3:
	.cfi_offset r10, -12
.Ltmp4:
	.cfi_offset r4, -16
	.setfp	r11, sp, #8
	add	r11, sp, #8
.Ltmp5:
	.cfi_def_cfa r11, 8
	@DEBUG_VALUE: ~vector:this <- %R0
	mov	r4, r0
.Ltmp6:
	@DEBUG_VALUE: ~vector:this <- %R4
	.loc	11 160 37 prologue_end  @ /usr/bin/../lib/gcc/arm-linux-gnueabihf/6.3.0/../../../../include/c++/6.3.0/bits/stl_vector.h:160:37
	ldr	r0, [r4]
.Ltmp7:
	@DEBUG_VALUE: _M_deallocate:__p <- %R0
	@DEBUG_VALUE: deallocate:__p <- %R0
	@DEBUG_VALUE: deallocate:__p <- %R0
	.loc	11 177 6                @ /usr/bin/../lib/gcc/arm-linux-gnueabihf/6.3.0/../../../../include/c++/6.3.0/bits/stl_vector.h:177:6
	cmp	r0, #0
	beq	.LBB0_2
.Ltmp8:
@ BB#1:
	@DEBUG_VALUE: deallocate:__p <- %R0
	@DEBUG_VALUE: deallocate:__p <- %R0
	@DEBUG_VALUE: _M_deallocate:__p <- %R0
	@DEBUG_VALUE: ~vector:this <- %R4
	.loc	7 110 9                 @ /usr/bin/../lib/gcc/arm-linux-gnueabihf/6.3.0/../../../../include/c++/6.3.0/ext/new_allocator.h:110:9
	bl	_ZdlPv
.Ltmp9:
.LBB0_2:                                @ %_ZNSt12_Vector_baseIfSaIfEED2Ev.exit
	@DEBUG_VALUE: ~vector:this <- %R4
	.loc	11 427 33 discriminator 1 @ /usr/bin/../lib/gcc/arm-linux-gnueabihf/6.3.0/../../../../include/c++/6.3.0/bits/stl_vector.h:427:33
	mov	r0, r4
	pop	{r4, r10, r11, pc}
.Ltmp10:
.Lfunc_end0:
	.size	_ZNSt6vectorIfSaIfEED2Ev, .Lfunc_end0-_ZNSt6vectorIfSaIfEED2Ev
	.cfi_endproc
	.fnend

	.section	.text._ZNSt6vectorIS_IfSaIfEESaIS1_EED2Ev,"axG",%progbits,_ZNSt6vectorIS_IfSaIfEESaIS1_EED2Ev,comdat
	.weak	_ZNSt6vectorIS_IfSaIfEESaIS1_EED2Ev
	.p2align	2
	.type	_ZNSt6vectorIS_IfSaIfEESaIS1_EED2Ev,%function
_ZNSt6vectorIS_IfSaIfEESaIS1_EED2Ev:    @ @_ZNSt6vectorIS_IfSaIfEESaIS1_EED2Ev
.Lfunc_begin1:
	.loc	11 426 0                @ /usr/bin/../lib/gcc/arm-linux-gnueabihf/6.3.0/../../../../include/c++/6.3.0/bits/stl_vector.h:426:0
	.fnstart
	.cfi_startproc
@ BB#0:
	.save	{r4, r5, r6, r10, r11, lr}
	push	{r4, r5, r6, r10, r11, lr}
.Ltmp11:
	.cfi_def_cfa_offset 24
.Ltmp12:
	.cfi_offset lr, -4
.Ltmp13:
	.cfi_offset r11, -8
.Ltmp14:
	.cfi_offset r10, -12
.Ltmp15:
	.cfi_offset r6, -16
.Ltmp16:
	.cfi_offset r5, -20
.Ltmp17:
	.cfi_offset r4, -24
	.setfp	r11, sp, #16
	add	r11, sp, #16
.Ltmp18:
	.cfi_def_cfa r11, 8
	@DEBUG_VALUE: ~vector:this <- %R0
	mov	r4, r0
.Ltmp19:
	@DEBUG_VALUE: __destroy<std::vector<float, std::allocator<float> > *>:__last <- %R6
	@DEBUG_VALUE: _Destroy<std::vector<float, std::allocator<float> > *>:__last <- %R6
	@DEBUG_VALUE: _Destroy<std::vector<float, std::allocator<float> > *, std::vector<float, std::allocator<float> > >:__last <- %R6
	@DEBUG_VALUE: _Destroy<std::vector<float, std::allocator<float> > *, std::vector<float, std::allocator<float> > >:__first <- %R5
	@DEBUG_VALUE: _Destroy<std::vector<float, std::allocator<float> > *>:__first <- %R5
	@DEBUG_VALUE: __destroy<std::vector<float, std::allocator<float> > *>:__first <- %R5
	@DEBUG_VALUE: ~vector:this <- %R4
	.loc	11 426 37 prologue_end  @ /usr/bin/../lib/gcc/arm-linux-gnueabihf/6.3.0/../../../../include/c++/6.3.0/bits/stl_vector.h:426:37
	ldm	r4, {r5, r6}
.Ltmp20:
	.file	46 "/usr/bin/../lib/gcc/arm-linux-gnueabihf/6.3.0/../../../../include/c++/6.3.0/bits" "stl_construct.h"
	.loc	46 102 4 discriminator 1 @ /usr/bin/../lib/gcc/arm-linux-gnueabihf/6.3.0/../../../../include/c++/6.3.0/bits/stl_construct.h:102:4
	cmp	r5, r6
	beq	.LBB1_5
.Ltmp21:
.LBB1_1:                                @ %.lr.ph.i.i.i
                                        @ =>This Inner Loop Header: Depth=1
	@DEBUG_VALUE: __addressof<std::vector<float, std::allocator<float> > >:__r <- %R5
	.loc	11 160 37               @ /usr/bin/../lib/gcc/arm-linux-gnueabihf/6.3.0/../../../../include/c++/6.3.0/bits/stl_vector.h:160:37
	ldr	r0, [r5]
.Ltmp22:
	@DEBUG_VALUE: _M_deallocate:__p <- %R0
	@DEBUG_VALUE: deallocate:__p <- %R0
	@DEBUG_VALUE: deallocate:__p <- %R0
	.loc	11 177 6                @ /usr/bin/../lib/gcc/arm-linux-gnueabihf/6.3.0/../../../../include/c++/6.3.0/bits/stl_vector.h:177:6
	cmp	r0, #0
	beq	.LBB1_3
.Ltmp23:
@ BB#2:                                 @   in Loop: Header=BB1_1 Depth=1
	@DEBUG_VALUE: deallocate:__p <- %R0
	@DEBUG_VALUE: deallocate:__p <- %R0
	@DEBUG_VALUE: _M_deallocate:__p <- %R0
	@DEBUG_VALUE: __addressof<std::vector<float, std::allocator<float> > >:__r <- %R5
	.loc	7 110 9                 @ /usr/bin/../lib/gcc/arm-linux-gnueabihf/6.3.0/../../../../include/c++/6.3.0/ext/new_allocator.h:110:9
	bl	_ZdlPv
.Ltmp24:
.LBB1_3:                                @ %_ZSt8_DestroyISt6vectorIfSaIfEEEvPT_.exit.i.i.i
                                        @   in Loop: Header=BB1_1 Depth=1
	@DEBUG_VALUE: __addressof<std::vector<float, std::allocator<float> > >:__r <- %R5
	.loc	46 102 30 discriminator 2 @ /usr/bin/../lib/gcc/arm-linux-gnueabihf/6.3.0/../../../../include/c++/6.3.0/bits/stl_construct.h:102:30
	add	r5, r5, #12
.Ltmp25:
	@DEBUG_VALUE: __destroy<std::vector<float, std::allocator<float> > *>:__first <- %R5
	.loc	46 102 4 is_stmt 0 discriminator 1 @ /usr/bin/../lib/gcc/arm-linux-gnueabihf/6.3.0/../../../../include/c++/6.3.0/bits/stl_construct.h:102:4
	cmp	r6, r5
	bne	.LBB1_1
.Ltmp26:
@ BB#4:                                 @ %_ZSt8_DestroyIPSt6vectorIfSaIfEES2_EvT_S4_RSaIT0_E.exit.loopexit
	@DEBUG_VALUE: __destroy<std::vector<float, std::allocator<float> > *>:__first <- %R5
	.loc	11 160 37 is_stmt 1     @ /usr/bin/../lib/gcc/arm-linux-gnueabihf/6.3.0/../../../../include/c++/6.3.0/bits/stl_vector.h:160:37
	ldr	r5, [r4]
.Ltmp27:
.LBB1_5:                                @ %_ZSt8_DestroyIPSt6vectorIfSaIfEES2_EvT_S4_RSaIT0_E.exit
	@DEBUG_VALUE: _M_deallocate:__p <- %R5
	.loc	11 177 6                @ /usr/bin/../lib/gcc/arm-linux-gnueabihf/6.3.0/../../../../include/c++/6.3.0/bits/stl_vector.h:177:6
	cmp	r5, #0
	beq	.LBB1_7
.Ltmp28:
@ BB#6:
	@DEBUG_VALUE: _M_deallocate:__p <- %R5
	.loc	7 110 9                 @ /usr/bin/../lib/gcc/arm-linux-gnueabihf/6.3.0/../../../../include/c++/6.3.0/ext/new_allocator.h:110:9
	mov	r0, r5
	bl	_ZdlPv
.Ltmp29:
.LBB1_7:                                @ %_ZNSt12_Vector_baseISt6vectorIfSaIfEESaIS2_EED2Ev.exit
	@DEBUG_VALUE: _M_deallocate:__p <- %R5
	.loc	11 427 33 discriminator 1 @ /usr/bin/../lib/gcc/arm-linux-gnueabihf/6.3.0/../../../../include/c++/6.3.0/bits/stl_vector.h:427:33
	mov	r0, r4
	pop	{r4, r5, r6, r10, r11, pc}
.Ltmp30:
.Lfunc_end1:
	.size	_ZNSt6vectorIS_IfSaIfEESaIS1_EED2Ev, .Lfunc_end1-_ZNSt6vectorIS_IfSaIfEESaIS1_EED2Ev
	.cfi_endproc
	.fnend

	.section	.text._ZN3FftD2Ev,"axG",%progbits,_ZN3FftD2Ev,comdat
	.weak	_ZN3FftD2Ev
	.p2align	2
	.type	_ZN3FftD2Ev,%function
_ZN3FftD2Ev:                            @ @_ZN3FftD2Ev
.Lfunc_begin2:
	.loc	16 16 0                 @ ./libraries/Fft/Fft.h:16:0
	.fnstart
	.cfi_startproc
@ BB#0:
	.save	{r4, r10, r11, lr}
	push	{r4, r10, r11, lr}
.Ltmp34:
	.cfi_def_cfa_offset 16
.Ltmp35:
	.cfi_offset lr, -4
.Ltmp36:
	.cfi_offset r11, -8
.Ltmp37:
	.cfi_offset r10, -12
.Ltmp38:
	.cfi_offset r4, -16
	.setfp	r11, sp, #8
	add	r11, sp, #8
.Ltmp39:
	.cfi_def_cfa r11, 8
	@DEBUG_VALUE: ~Fft:this <- %R0
	mov	r4, r0
.Ltmp40:
	@DEBUG_VALUE: ~Fft:this <- %R4
	.loc	16 16 10 prologue_end   @ ./libraries/Fft/Fft.h:16:10
.Ltmp31:
	bl	_ZN3Fft7cleanupEv
.Ltmp32:
.Ltmp41:
@ BB#1:
	@DEBUG_VALUE: ~Fft:this <- %R4
	.loc	16 16 21 is_stmt 0 discriminator 1 @ ./libraries/Fft/Fft.h:16:21
	mov	r0, r4
	pop	{r4, r10, r11, pc}
.Ltmp42:
.LBB2_2:
	@DEBUG_VALUE: ~Fft:this <- %R4
.Ltmp33:
.Ltmp43:
	.loc	16 16 10 discriminator 2 @ ./libraries/Fft/Fft.h:16:10
	mov	lr, pc
	b	__clang_call_terminate
.Ltmp44:
.Lfunc_end2:
	.size	_ZN3FftD2Ev, .Lfunc_end2-_ZN3FftD2Ev
	.cfi_endproc
	.globl	__gxx_personality_v0
	.personality __gxx_personality_v0
	.handlerdata
	.p2align	2
GCC_except_table2:
.Lexception0:
	.byte	255                     @ @LPStart Encoding = omit
	.byte	0                       @ @TType Encoding = absptr
	.byte	21                      @ @TType base offset
	.byte	3                       @ Call site Encoding = udata4
	.byte	13                      @ Call site table length
	.long	.Ltmp31-.Lfunc_begin2   @ >> Call Site 1 <<
	.long	.Ltmp32-.Ltmp31         @   Call between .Ltmp31 and .Ltmp32
	.long	.Ltmp33-.Lfunc_begin2   @     jumps to .Ltmp33
	.byte	1                       @   On action: 1
	.byte	1                       @ >> Action Record 1 <<
                                        @   Catch TypeInfo 1
	.byte	0                       @   No further actions
                                        @ >> Catch TypeInfos <<
	.long	0                       @ TypeInfo 1
	.p2align	2
	.fnend

	.text
	.globl	setup
	.p2align	2
	.type	setup,%function
setup:                                  @ @setup
.Lfunc_begin3:
	.loc	5 30 0 is_stmt 1        @ /root/Bela/projects/frek_domen_filtriranje/render.cpp:30:0
	.fnstart
	.cfi_startproc
@ BB#0:
	.save	{r4, r5, r6, r7, r8, r9, r10, r11, lr}
	push	{r4, r5, r6, r7, r8, r9, r10, r11, lr}
.Ltmp134:
	.cfi_def_cfa_offset 36
.Ltmp135:
	.cfi_offset lr, -4
.Ltmp136:
	.cfi_offset r11, -8
.Ltmp137:
	.cfi_offset r10, -12
.Ltmp138:
	.cfi_offset r9, -16
.Ltmp139:
	.cfi_offset r8, -20
.Ltmp140:
	.cfi_offset r7, -24
.Ltmp141:
	.cfi_offset r6, -28
.Ltmp142:
	.cfi_offset r5, -32
.Ltmp143:
	.cfi_offset r4, -36
	.setfp	r11, sp, #28
	add	r11, sp, #28
.Ltmp144:
	.cfi_def_cfa r11, 8
	.pad	#4
	sub	sp, sp, #4
	.vsave	{d8}
	vpush	{d8}
.Ltmp145:
	.cfi_offset d8, -48
	.pad	#1104
	sub	sp, sp, #1104
	@DEBUG_VALUE: setup:context <- %R0
	@DEBUG_VALUE: setup:userData <- %R1
.Ltmp146:
	@DEBUG_VALUE: i <- 0
	.loc	5 31 31 prologue_end discriminator 1 @ /root/Bela/projects/frek_domen_filtriranje/render.cpp:31:31
	movw	r7, :lower16:.L_MergedGlobals
	movt	r7, :upper16:.L_MergedGlobals
	ldr	r0, [r7]
.Ltmp147:
	.loc	5 31 2 is_stmt 0 discriminator 1 @ /root/Bela/projects/frek_domen_filtriranje/render.cpp:31:2
	cmp	r0, #0
	beq	.LBB3_4
.Ltmp148:
@ BB#1:                                 @ %.lr.ph242.preheader
	@DEBUG_VALUE: setup:userData <- %R1
	mov	r4, #0
	mov	r6, #0
.Ltmp149:
.LBB3_2:                                @ %.lr.ph242
                                        @ =>This Inner Loop Header: Depth=1
	.loc	5 32 18 is_stmt 1       @ /root/Bela/projects/frek_domen_filtriranje/render.cpp:32:18
	mov	r0, #16
	bl	_Znwj
	.loc	5 32 26 is_stmt 0       @ /root/Bela/projects/frek_domen_filtriranje/render.cpp:32:26
	ldr	r1, [r7, #4]
.Ltmp150:
	@DEBUG_VALUE: Fft:length <- %R1
	.loc	5 32 18                 @ /root/Bela/projects/frek_domen_filtriranje/render.cpp:32:18
	mov	r5, r0
.Ltmp151:
	@DEBUG_VALUE: Fft:this <- %R5
	.loc	16 56 18 is_stmt 1      @ ./libraries/Fft/Fft.h:56:18
	str	r4, [r5]
	.loc	16 57 26                @ ./libraries/Fft/Fft.h:57:26
	str	r4, [r5, #4]
	.loc	16 58 29                @ ./libraries/Fft/Fft.h:58:29
	str	r4, [r5, #8]
.Ltmp152:
	.loc	16 15 28                @ ./libraries/Fft/Fft.h:15:28
.Ltmp45:
	bl	_ZN3Fft5setupEj
.Ltmp153:
.Ltmp46:
.Ltmp154:
@ BB#3:                                 @ %_ZN3FftC2Ej.exit
                                        @   in Loop: Header=BB3_2 Depth=1
	@DEBUG_VALUE: Fft:this <- %R5
	.loc	5 32 9 discriminator 1  @ /root/Bela/projects/frek_domen_filtriranje/render.cpp:32:9
	ldr	r0, [r7, #8]
	.loc	5 32 16 is_stmt 0 discriminator 1 @ /root/Bela/projects/frek_domen_filtriranje/render.cpp:32:16
	str	r5, [r0, r6, lsl #2]
.Ltmp155:
	.loc	5 31 47 is_stmt 1 discriminator 3 @ /root/Bela/projects/frek_domen_filtriranje/render.cpp:31:47
	add	r6, r6, #1
.Ltmp156:
	@DEBUG_VALUE: i <- %R6
	.loc	5 31 31 is_stmt 0 discriminator 1 @ /root/Bela/projects/frek_domen_filtriranje/render.cpp:31:31
	ldr	r0, [r7]
	.loc	5 31 2 discriminator 1  @ /root/Bela/projects/frek_domen_filtriranje/render.cpp:31:2
	cmp	r6, r0
	blo	.LBB3_2
.Ltmp157:
.LBB3_4:                                @ %.preheader
	.loc	5 36 30 is_stmt 1 discriminator 1 @ /root/Bela/projects/frek_domen_filtriranje/render.cpp:36:30
	ldr	r1, [r7, #4]
	.loc	5 36 2 is_stmt 0 discriminator 1 @ /root/Bela/projects/frek_domen_filtriranje/render.cpp:36:2
	cmp	r1, #0
	beq	.LBB3_6
@ BB#5:                                 @ %.lr.ph
.Ltmp158:
	.loc	11 781 32 is_stmt 1     @ /usr/bin/../lib/gcc/arm-linux-gnueabihf/6.3.0/../../../../include/c++/6.3.0/bits/stl_vector.h:781:32
	ldr	r0, [r7, #24]
.Ltmp159:
	.loc	5 36 2 discriminator 1  @ /root/Bela/projects/frek_domen_filtriranje/render.cpp:36:2
	lsl	r2, r1, #2
.Ltmp160:
	.loc	5 37 8                  @ /root/Bela/projects/frek_domen_filtriranje/render.cpp:37:8
	mov	r1, #0
	bl	memset
.Ltmp161:
.LBB3_6:                                @ %._crit_edge239
	sub	r4, r11, #328
.Ltmp162:
	@DEBUG_VALUE: is_open:this <- %R4
	@DEBUG_VALUE: setup:file <- [%R4+0]
	.loc	5 41 19 discriminator 1 @ /root/Bela/projects/frek_domen_filtriranje/render.cpp:41:19
	movw	r1, :lower16:.L.str
	movt	r1, :upper16:.L.str
	mov	r2, #8
	mov	r0, r4
	bl	_ZNSt14basic_ifstreamIcSt11char_traitsIcEEC1EPKcSt13_Ios_Openmode
.Ltmp163:
	.file	47 "/usr/bin/../lib/gcc/arm-linux-gnueabihf/6.3.0/../../../../include/c++/6.3.0" "fstream"
	.loc	47 253 16               @ /usr/bin/../lib/gcc/arm-linux-gnueabihf/6.3.0/../../../../include/c++/6.3.0/fstream:253:16
	add	r0, r4, #64
	.loc	47 253 24 is_stmt 0     @ /usr/bin/../lib/gcc/arm-linux-gnueabihf/6.3.0/../../../../include/c++/6.3.0/fstream:253:24
	bl	_ZNKSt12__basic_fileIcE7is_openEv
.Ltmp164:
	.loc	5 42 9 is_stmt 1 discriminator 1 @ /root/Bela/projects/frek_domen_filtriranje/render.cpp:42:9
	cmp	r0, #0
.Ltmp165:
	@DEBUG_VALUE: is_open:this <- undef
	@DEBUG_VALUE: setup:file <- undef
	beq	.LBB3_52
@ BB#7:
	sub	r0, r11, #352
.Ltmp166:
	@DEBUG_VALUE: getline<char, std::char_traits<char>, std::allocator<char> >:__str <- %R0
	@DEBUG_VALUE: _M_data:this <- %R0
	@DEBUG_VALUE: _M_length:this <- %R0
	@DEBUG_VALUE: _M_set_length:__n <- 0
	@DEBUG_VALUE: _M_set_length:this <- %R0
	@DEBUG_VALUE: _M_local_data:this <- %R0
	@DEBUG_VALUE: basic_string:this <- %R0
	@DEBUG_VALUE: setup:line <- [%R0+0]
	mov	r10, #0
.Ltmp167:
	@DEBUG_VALUE: _M_length:__length <- 0
	.loc	19 142 51               @ /usr/bin/../lib/gcc/arm-linux-gnueabihf/6.3.0/../../../../include/c++/6.3.0/bits/basic_string.h:142:51
	add	r0, r0, #8
.Ltmp168:
	.loc	19 110 25               @ /usr/bin/../lib/gcc/arm-linux-gnueabihf/6.3.0/../../../../include/c++/6.3.0/bits/basic_string.h:110:25
	str	r0, [r11, #-352]
	str	r0, [sp, #12]           @ 4-byte Spill
.Ltmp169:
	.loc	19 5382 40              @ /usr/bin/../lib/gcc/arm-linux-gnueabihf/6.3.0/../../../../include/c++/6.3.0/bits/basic_string.h:5382:40
	ldr	r0, [r11, #-328]
.Ltmp170:
	.loc	19 132 26               @ /usr/bin/../lib/gcc/arm-linux-gnueabihf/6.3.0/../../../../include/c++/6.3.0/bits/basic_string.h:132:26
	str	r10, [r11, #-348]
.Ltmp171:
	@DEBUG_VALUE: assign:__c1 <- [%SP+12]
	.loc	21 243 14               @ /usr/bin/../lib/gcc/arm-linux-gnueabihf/6.3.0/../../../../include/c++/6.3.0/bits/char_traits.h:243:14
	strb	r10, [r11, #-344]
.Ltmp172:
	.loc	19 5382 40              @ /usr/bin/../lib/gcc/arm-linux-gnueabihf/6.3.0/../../../../include/c++/6.3.0/bits/basic_string.h:5382:40
	ldr	r0, [r0, #-12]
	add	r0, r4, r0
.Ltmp173:
	@DEBUG_VALUE: widen:__c <- 10
	.file	48 "/usr/bin/../lib/gcc/arm-linux-gnueabihf/6.3.0/../../../../include/c++/6.3.0/bits" "basic_ios.h"
	.loc	48 450 30               @ /usr/bin/../lib/gcc/arm-linux-gnueabihf/6.3.0/../../../../include/c++/6.3.0/bits/basic_ios.h:450:30
	ldr	r5, [r0, #124]
.Ltmp174:
	@DEBUG_VALUE: __check_facet<std::ctype<char> >:__f <- %R5
	mov	r0, r4
.Ltmp175:
	.loc	48 49 11                @ /usr/bin/../lib/gcc/arm-linux-gnueabihf/6.3.0/../../../../include/c++/6.3.0/bits/basic_ios.h:49:11
	cmp	r5, #0
	beq	.LBB3_50
.Ltmp176:
@ BB#8:                                 @ %_ZSt13__check_facetISt5ctypeIcEERKT_PS3_.exit.i.i.lr.ph
	@DEBUG_VALUE: __check_facet<std::ctype<char> >:__f <- %R5
	@DEBUG_VALUE: assign:__c1 <- [%SP+12]
	sub	r9, r11, #560
	add	r4, sp, #304
.Ltmp177:
	.loc	48 282 22               @ /usr/bin/../lib/gcc/arm-linux-gnueabihf/6.3.0/../../../../include/c++/6.3.0/bits/basic_ios.h:282:22
	add	r1, r9, #72
.Ltmp178:
	.file	49 "/usr/bin/../lib/gcc/arm-linux-gnueabihf/6.3.0/../../../../include/c++/6.3.0" "streambuf"
	.loc	49 198 9                @ /usr/bin/../lib/gcc/arm-linux-gnueabihf/6.3.0/../../../../include/c++/6.3.0/streambuf:198:9
	str	r1, [sp, #24]           @ 4-byte Spill
	add	r1, r9, #40
.Ltmp179:
	.loc	19 152 57               @ /usr/bin/../lib/gcc/arm-linux-gnueabihf/6.3.0/../../../../include/c++/6.3.0/bits/basic_string.h:152:57
	str	r1, [sp, #20]           @ 4-byte Spill
	add	r1, r9, #56
	str	r1, [sp, #16]           @ 4-byte Spill
.Ltmp180:
	.loc	19 142 51               @ /usr/bin/../lib/gcc/arm-linux-gnueabihf/6.3.0/../../../../include/c++/6.3.0/bits/basic_string.h:142:51
	add	r1, r4, #8
.Ltmp181:
	.loc	22 718 7                @ /usr/bin/../lib/gcc/arm-linux-gnueabihf/6.3.0/../../../../include/c++/6.3.0/sstream:718:7
	str	r1, [sp, #56]           @ 4-byte Spill
	movw	r1, :lower16:_ZTTNSt7__cxx1118basic_stringstreamIcSt11char_traitsIcESaIcEEE
	add	r8, sp, #60
	movt	r1, :upper16:_ZTTNSt7__cxx1118basic_stringstreamIcSt11char_traitsIcESaIcEEE
	ldr	r2, [r1]
.Ltmp182:
	.file	50 "/usr/bin/../lib/gcc/arm-linux-gnueabihf/6.3.0/../../../../include/c++/6.3.0" "istream"
	.loc	50 104 7                @ /usr/bin/../lib/gcc/arm-linux-gnueabihf/6.3.0/../../../../include/c++/6.3.0/istream:104:7
	str	r2, [sp, #40]           @ 4-byte Spill
	ldr	r2, [r1, #12]
	str	r2, [sp, #52]           @ 4-byte Spill
	ldr	r2, [r1, #8]
.Ltmp183:
	.loc	22 718 7                @ /usr/bin/../lib/gcc/arm-linux-gnueabihf/6.3.0/../../../../include/c++/6.3.0/sstream:718:7
	str	r2, [sp, #48]           @ 4-byte Spill
	ldr	r2, [r1, #32]
	ldr	r1, [r1, #36]
	str	r1, [sp, #36]           @ 4-byte Spill
.Ltmp184:
	.file	51 "/usr/bin/../lib/gcc/arm-linux-gnueabihf/6.3.0/../../../../include/c++/6.3.0/bits" "sstream.tcc"
	.loc	51 272 25               @ /usr/bin/../lib/gcc/arm-linux-gnueabihf/6.3.0/../../../../include/c++/6.3.0/bits/sstream.tcc:272:25
	movw	r1, :lower16:_ZTVNSt7__cxx1115basic_stringbufIcSt11char_traitsIcESaIcEEE
	movt	r1, :upper16:_ZTVNSt7__cxx1115basic_stringbufIcSt11char_traitsIcESaIcEEE
.Ltmp185:
	.loc	22 718 7                @ /usr/bin/../lib/gcc/arm-linux-gnueabihf/6.3.0/../../../../include/c++/6.3.0/sstream:718:7
	str	r2, [sp, #32]           @ 4-byte Spill
.Ltmp186:
	.loc	51 272 25               @ /usr/bin/../lib/gcc/arm-linux-gnueabihf/6.3.0/../../../../include/c++/6.3.0/bits/sstream.tcc:272:25
	add	r1, r1, #8
.Ltmp187:
	.loc	49 198 7                @ /usr/bin/../lib/gcc/arm-linux-gnueabihf/6.3.0/../../../../include/c++/6.3.0/streambuf:198:7
	str	r1, [sp, #28]           @ 4-byte Spill
	movw	r1, :lower16:_ZTVSt15basic_streambufIcSt11char_traitsIcEE
	movt	r1, :upper16:_ZTVSt15basic_streambufIcSt11char_traitsIcEE
	add	r1, r1, #8
.Ltmp188:
	.loc	48 49 11                @ /usr/bin/../lib/gcc/arm-linux-gnueabihf/6.3.0/../../../../include/c++/6.3.0/bits/basic_ios.h:49:11
	str	r1, [sp, #44]           @ 4-byte Spill
.Ltmp189:
.LBB3_9:                                @ %_ZSt13__check_facetISt5ctypeIcEERKT_PS3_.exit.i.i
                                        @ =>This Loop Header: Depth=1
                                        @     Child Loop BB3_19 Depth 2
	@DEBUG_VALUE: __check_facet<std::ctype<char> >:__f <- %R5
	@DEBUG_VALUE: widen:__c <- 10
	@DEBUG_VALUE: widen:this <- %R5
	.file	52 "/usr/bin/../lib/gcc/arm-linux-gnueabihf/6.3.0/../../../../include/c++/6.3.0/bits" "locale_facets.h"
	.loc	52 874 6                @ /usr/bin/../lib/gcc/arm-linux-gnueabihf/6.3.0/../../../../include/c++/6.3.0/bits/locale_facets.h:874:6
	ldrb	r1, [r5, #28]
.Ltmp190:
	.loc	52 874 6 is_stmt 0      @ /usr/bin/../lib/gcc/arm-linux-gnueabihf/6.3.0/../../../../include/c++/6.3.0/bits/locale_facets.h:874:6
	cmp	r1, #0
	beq	.LBB3_11
.Ltmp191:
@ BB#10:                                @   in Loop: Header=BB3_9 Depth=1
	@DEBUG_VALUE: widen:this <- %R5
	@DEBUG_VALUE: __check_facet<std::ctype<char> >:__f <- %R5
	.loc	52 875 11 is_stmt 1     @ /usr/bin/../lib/gcc/arm-linux-gnueabihf/6.3.0/../../../../include/c++/6.3.0/bits/locale_facets.h:875:11
	ldrb	r2, [r5, #39]
	b	.LBB3_14
.Ltmp192:
.LBB3_11:                               @   in Loop: Header=BB3_9 Depth=1
	@DEBUG_VALUE: widen:this <- %R5
	@DEBUG_VALUE: __check_facet<std::ctype<char> >:__f <- %R5
	.loc	52 876 8                @ /usr/bin/../lib/gcc/arm-linux-gnueabihf/6.3.0/../../../../include/c++/6.3.0/bits/locale_facets.h:876:8
.Ltmp51:
	mov	r0, r5
	bl	_ZNKSt5ctypeIcE13_M_widen_initEv
.Ltmp52:
.Ltmp193:
@ BB#12:                                @ %.noexc25
                                        @   in Loop: Header=BB3_9 Depth=1
	@DEBUG_VALUE: widen:this <- %R5
	@DEBUG_VALUE: __check_facet<std::ctype<char> >:__f <- %R5
	.loc	52 877 15               @ /usr/bin/../lib/gcc/arm-linux-gnueabihf/6.3.0/../../../../include/c++/6.3.0/bits/locale_facets.h:877:15
	ldr	r0, [r5]
	ldr	r2, [r0, #24]
.Ltmp53:
	mov	r0, r5
	mov	r1, #10
	blx	r2
	mov	r2, r0
.Ltmp54:
.Ltmp194:
@ BB#13:                                @   in Loop: Header=BB3_9 Depth=1
	@DEBUG_VALUE: widen:this <- %R5
	@DEBUG_VALUE: __check_facet<std::ctype<char> >:__f <- %R5
	sub	r0, r11, #328
.Ltmp195:
.LBB3_14:                               @ %_ZNKSt9basic_iosIcSt11char_traitsIcEE5widenEc.exit.i
                                        @   in Loop: Header=BB3_9 Depth=1
	@DEBUG_VALUE: widen:this <- %R5
	@DEBUG_VALUE: __check_facet<std::ctype<char> >:__f <- %R5
	.loc	19 5382 14 discriminator 1 @ /usr/bin/../lib/gcc/arm-linux-gnueabihf/6.3.0/../../../../include/c++/6.3.0/bits/basic_string.h:5382:14
.Ltmp55:
	sub	r1, r11, #352
	bl	_ZSt7getlineIcSt11char_traitsIcESaIcEERSt13basic_istreamIT_T0_ES7_RNSt7__cxx1112basic_stringIS4_S5_T1_EES4_
.Ltmp56:
.Ltmp196:
@ BB#15:                                @   in Loop: Header=BB3_9 Depth=1
	@DEBUG_VALUE: widen:this <- %R5
	@DEBUG_VALUE: __check_facet<std::ctype<char> >:__f <- %R5
	.loc	5 47 12 discriminator 2 @ /root/Bela/projects/frek_domen_filtriranje/render.cpp:47:12
	ldr	r1, [r0]
	ldr	r1, [r1, #-12]
	add	r0, r0, r1
.Ltmp197:
	@DEBUG_VALUE: operator&:__b <- 5
	.loc	5 47 5 is_stmt 0 discriminator 3 @ /root/Bela/projects/frek_domen_filtriranje/render.cpp:47:5
	ldrb	r0, [r0, #20]
	tst	r0, #5
	bne	.LBB3_53
.Ltmp198:
@ BB#16:                                @   in Loop: Header=BB3_9 Depth=1
	@DEBUG_VALUE: widen:this <- %R5
	@DEBUG_VALUE: __check_facet<std::ctype<char> >:__f <- %R5
	.loc	11 87 22 is_stmt 1      @ /usr/bin/../lib/gcc/arm-linux-gnueabihf/6.3.0/../../../../include/c++/6.3.0/bits/stl_vector.h:87:22
	str	r10, [sp, #84]
	.loc	11 87 34 is_stmt 0      @ /usr/bin/../lib/gcc/arm-linux-gnueabihf/6.3.0/../../../../include/c++/6.3.0/bits/stl_vector.h:87:34
	str	r10, [sp, #88]
	.loc	11 87 47                @ /usr/bin/../lib/gcc/arm-linux-gnueabihf/6.3.0/../../../../include/c++/6.3.0/bits/stl_vector.h:87:47
	str	r10, [sp, #92]
.Ltmp199:
	.loc	5 49 27 is_stmt 1 discriminator 1 @ /root/Bela/projects/frek_domen_filtriranje/render.cpp:49:27
.Ltmp106:
	sub	r1, r11, #352
	mov	r0, r9
	mov	r2, #24
	bl	_ZNSt7__cxx1118basic_stringstreamIcSt11char_traitsIcESaIcEEC1ERKNS_12basic_stringIcS2_S3_EESt13_Ios_Openmode
.Ltmp107:
.Ltmp200:
@ BB#17:                                @   in Loop: Header=BB3_9 Depth=1
	@DEBUG_VALUE: widen:this <- %R5
	@DEBUG_VALUE: __check_facet<std::ctype<char> >:__f <- %R5
	.loc	19 110 25               @ /usr/bin/../lib/gcc/arm-linux-gnueabihf/6.3.0/../../../../include/c++/6.3.0/bits/basic_string.h:110:25
	ldr	r0, [sp, #56]           @ 4-byte Reload
	str	r0, [sp, #304]
.Ltmp201:
	@DEBUG_VALUE: _M_length:__length <- 0
	@DEBUG_VALUE: _M_set_length:__n <- 0
	.loc	19 132 26               @ /usr/bin/../lib/gcc/arm-linux-gnueabihf/6.3.0/../../../../include/c++/6.3.0/bits/basic_string.h:132:26
	str	r10, [sp, #308]
.Ltmp202:
	.loc	21 243 14               @ /usr/bin/../lib/gcc/arm-linux-gnueabihf/6.3.0/../../../../include/c++/6.3.0/bits/char_traits.h:243:14
	strb	r10, [sp, #312]
	b	.LBB3_19
.Ltmp203:
.LBB3_18:                               @   in Loop: Header=BB3_19 Depth=2
	@DEBUG_VALUE: construct<float, float>:__p <- %R0
	@DEBUG_VALUE: construct<float, float>:__p <- %R0
	@DEBUG_VALUE: __stoa<float, float, char>:__tmp <- %S16
	@DEBUG_VALUE: __stoa<float, float, char>:__str <- %R6
	.loc	7 120 4                 @ /usr/bin/../lib/gcc/arm-linux-gnueabihf/6.3.0/../../../../include/c++/6.3.0/ext/new_allocator.h:120:4
	vstmia	r0!, {s16}
.Ltmp204:
	.file	53 "/usr/bin/../lib/gcc/arm-linux-gnueabihf/6.3.0/../../../../include/c++/6.3.0/bits" "vector.tcc"
	.loc	53 98 6                 @ /usr/bin/../lib/gcc/arm-linux-gnueabihf/6.3.0/../../../../include/c++/6.3.0/bits/vector.tcc:98:6
	str	r0, [sp, #88]
.Ltmp205:
.LBB3_19:                               @ %_ZNSt6vectorIfSaIfEE9push_backEOf.exit
                                        @   Parent Loop BB3_9 Depth=1
                                        @ =>  This Inner Loop Header: Depth=2
	.loc	5 51 16 discriminator 1 @ /root/Bela/projects/frek_domen_filtriranje/render.cpp:51:16
.Ltmp109:
	mov	r0, r9
	mov	r1, r4
	mov	r2, #44
	bl	_ZSt7getlineIcSt11char_traitsIcESaIcEERSt13basic_istreamIT_T0_ES7_RNSt7__cxx1112basic_stringIS4_S5_T1_EES4_
.Ltmp110:
@ BB#20:                                @   in Loop: Header=BB3_19 Depth=2
	.loc	5 51 16 is_stmt 0 discriminator 2 @ /root/Bela/projects/frek_domen_filtriranje/render.cpp:51:16
	ldr	r1, [r0]
	ldr	r1, [r1, #-12]
	add	r0, r0, r1
.Ltmp206:
	@DEBUG_VALUE: operator&:__b <- 5
	.loc	5 51 9 discriminator 3  @ /root/Bela/projects/frek_domen_filtriranje/render.cpp:51:9
	ldrb	r0, [r0, #20]
	tst	r0, #5
	bne	.LBB3_35
@ BB#21:                                @   in Loop: Header=BB3_19 Depth=2
.Ltmp207:
	.loc	19 136 28 is_stmt 1     @ /usr/bin/../lib/gcc/arm-linux-gnueabihf/6.3.0/../../../../include/c++/6.3.0/bits/basic_string.h:136:28
	ldr	r6, [sp, #304]
.Ltmp208:
	@DEBUG_VALUE: __stoa<float, float, char>:__str <- %R6
	.file	54 "/usr/bin/../lib/gcc/arm-linux-gnueabihf/6.3.0/../../../../include/c++/6.3.0/ext" "string_conversions.h"
	.loc	54 63 29                @ /usr/bin/../lib/gcc/arm-linux-gnueabihf/6.3.0/../../../../include/c++/6.3.0/ext/string_conversions.h:63:29
	bl	__errno_location
	mov	r5, r0
.Ltmp209:
	.loc	54 68 27                @ /usr/bin/../lib/gcc/arm-linux-gnueabihf/6.3.0/../../../../include/c++/6.3.0/ext/string_conversions.h:68:27
	mov	r0, r6
	mov	r1, r8
.Ltmp210:
	.loc	54 63 28                @ /usr/bin/../lib/gcc/arm-linux-gnueabihf/6.3.0/../../../../include/c++/6.3.0/ext/string_conversions.h:63:28
	ldr	r7, [r5]
.Ltmp211:
	.loc	54 63 76 is_stmt 0      @ /usr/bin/../lib/gcc/arm-linux-gnueabihf/6.3.0/../../../../include/c++/6.3.0/ext/string_conversions.h:63:76
	str	r10, [r5]
.Ltmp212:
	.loc	54 68 27 is_stmt 1      @ /usr/bin/../lib/gcc/arm-linux-gnueabihf/6.3.0/../../../../include/c++/6.3.0/ext/string_conversions.h:68:27
	bl	strtof
	vmov.f32	s16, s0
.Ltmp213:
	@DEBUG_VALUE: __stoa<float, float, char>:__tmp <- %S16
	.loc	54 70 11                @ /usr/bin/../lib/gcc/arm-linux-gnueabihf/6.3.0/../../../../include/c++/6.3.0/ext/string_conversions.h:70:11
	ldr	r0, [sp, #60]
.Ltmp214:
	@DEBUG_VALUE: __stoa<float, float, char>:__endptr <- %R0
	.loc	54 70 11 is_stmt 0      @ /usr/bin/../lib/gcc/arm-linux-gnueabihf/6.3.0/../../../../include/c++/6.3.0/ext/string_conversions.h:70:11
	cmp	r0, r6
	beq	.LBB3_115
.Ltmp215:
@ BB#22:                                @   in Loop: Header=BB3_19 Depth=2
	@DEBUG_VALUE: __stoa<float, float, char>:__endptr <- %R0
	@DEBUG_VALUE: __stoa<float, float, char>:__tmp <- %S16
	@DEBUG_VALUE: __stoa<float, float, char>:__str <- %R6
	.loc	54 72 17 is_stmt 1      @ /usr/bin/../lib/gcc/arm-linux-gnueabihf/6.3.0/../../../../include/c++/6.3.0/ext/string_conversions.h:72:17
	ldr	r0, [r5]
.Ltmp216:
	.loc	54 72 16 is_stmt 0      @ /usr/bin/../lib/gcc/arm-linux-gnueabihf/6.3.0/../../../../include/c++/6.3.0/ext/string_conversions.h:72:16
	cmp	r0, #0
	beq	.LBB3_24
.Ltmp217:
@ BB#23:                                @   in Loop: Header=BB3_19 Depth=2
	@DEBUG_VALUE: __stoa<float, float, char>:__tmp <- %S16
	@DEBUG_VALUE: __stoa<float, float, char>:__str <- %R6
	cmp	r0, #34
	bne	.LBB3_25
	b	.LBB3_113
.Ltmp218:
.LBB3_24:                               @   in Loop: Header=BB3_19 Depth=2
	@DEBUG_VALUE: __stoa<float, float, char>:__tmp <- %S16
	@DEBUG_VALUE: __stoa<float, float, char>:__str <- %R6
	.loc	54 64 75 is_stmt 1 discriminator 1 @ /usr/bin/../lib/gcc/arm-linux-gnueabihf/6.3.0/../../../../include/c++/6.3.0/ext/string_conversions.h:64:75
	str	r7, [r5]
.Ltmp219:
.LBB3_25:                               @   in Loop: Header=BB3_19 Depth=2
	@DEBUG_VALUE: __stoa<float, float, char>:__tmp <- %S16
	@DEBUG_VALUE: __stoa<float, float, char>:__str <- %R6
	.loc	53 98 6                 @ /usr/bin/../lib/gcc/arm-linux-gnueabihf/6.3.0/../../../../include/c++/6.3.0/bits/vector.tcc:98:6
	ldr	r0, [sp, #88]
.Ltmp220:
	@DEBUG_VALUE: construct<float, float>:__p <- %R0
	@DEBUG_VALUE: construct<float, float>:__p <- %R0
	.loc	53 94 47                @ /usr/bin/../lib/gcc/arm-linux-gnueabihf/6.3.0/../../../../include/c++/6.3.0/bits/vector.tcc:94:47
	ldr	r1, [sp, #92]
.Ltmp221:
	.loc	53 94 6 is_stmt 0       @ /usr/bin/../lib/gcc/arm-linux-gnueabihf/6.3.0/../../../../include/c++/6.3.0/bits/vector.tcc:94:6
	cmp	r0, r1
	bne	.LBB3_18
.Ltmp222:
@ BB#26:                                @   in Loop: Header=BB3_19 Depth=2
	@DEBUG_VALUE: construct<float, float>:__p <- %R0
	@DEBUG_VALUE: construct<float, float>:__p <- %R0
	@DEBUG_VALUE: __stoa<float, float, char>:__tmp <- %S16
	@DEBUG_VALUE: __stoa<float, float, char>:__str <- %R6
	@DEBUG_VALUE: _M_check_len:__n <- 1
	.loc	11 656 66 is_stmt 1     @ /usr/bin/../lib/gcc/arm-linux-gnueabihf/6.3.0/../../../../include/c++/6.3.0/bits/stl_vector.h:656:66
	ldr	r5, [sp, #84]
	mov	r8, #0
	mov	r10, r4
	.loc	11 656 50 is_stmt 0     @ /usr/bin/../lib/gcc/arm-linux-gnueabihf/6.3.0/../../../../include/c++/6.3.0/bits/stl_vector.h:656:50
	sub	r1, r0, r5
	asr	r2, r1, #2
.Ltmp223:
	.loc	11 1425 35 is_stmt 1    @ /usr/bin/../lib/gcc/arm-linux-gnueabihf/6.3.0/../../../../include/c++/6.3.0/bits/stl_vector.h:1425:35
	cmp	r8, r1, asr #2
	movweq	r2, #1
	add	r1, r2, r1, asr #2
	.loc	11 1426 25              @ /usr/bin/../lib/gcc/arm-linux-gnueabihf/6.3.0/../../../../include/c++/6.3.0/bits/stl_vector.h:1426:25
	cmp	r8, r1, lsr #30
	mov	r6, r1
.Ltmp224:
	mvnne	r6, #-1073741824
	cmp	r1, r2
	mvnlo	r6, #-1073741824
.Ltmp225:
	@DEBUG_VALUE: _M_allocate:__n <- %R6
	@DEBUG_VALUE: _M_emplace_back_aux<float>:__len <- %R6
	@DEBUG_VALUE: allocate:__n <- %R6
	@DEBUG_VALUE: allocate:__n <- %R6
	.loc	11 170 9                @ /usr/bin/../lib/gcc/arm-linux-gnueabihf/6.3.0/../../../../include/c++/6.3.0/bits/stl_vector.h:170:9
	cmp	r6, #0
.Ltmp226:
	@DEBUG_VALUE: _M_check_len:__len <- %R1
	beq	.LBB3_30
.Ltmp227:
@ BB#27:                                @   in Loop: Header=BB3_19 Depth=2
	@DEBUG_VALUE: _M_check_len:__len <- %R1
	@DEBUG_VALUE: allocate:__n <- %R6
	@DEBUG_VALUE: allocate:__n <- %R6
	@DEBUG_VALUE: _M_emplace_back_aux<float>:__len <- %R6
	@DEBUG_VALUE: _M_allocate:__n <- %R6
	@DEBUG_VALUE: construct<float, float>:__p <- %R0
	@DEBUG_VALUE: construct<float, float>:__p <- %R0
	@DEBUG_VALUE: __stoa<float, float, char>:__tmp <- %S16
	.loc	7 101 6                 @ /usr/bin/../lib/gcc/arm-linux-gnueabihf/6.3.0/../../../../include/c++/6.3.0/ext/new_allocator.h:101:6
	cmp	r6, #1073741824
	bhs	.LBB3_121
.Ltmp228:
@ BB#28:                                @ %_ZNSt16allocator_traitsISaIfEE8allocateERS0_j.exit.i.i
                                        @   in Loop: Header=BB3_19 Depth=2
	@DEBUG_VALUE: _M_check_len:__len <- %R1
	@DEBUG_VALUE: allocate:__n <- %R6
	@DEBUG_VALUE: allocate:__n <- %R6
	@DEBUG_VALUE: _M_emplace_back_aux<float>:__len <- %R6
	@DEBUG_VALUE: _M_allocate:__n <- %R6
	@DEBUG_VALUE: construct<float, float>:__p <- %R0
	@DEBUG_VALUE: construct<float, float>:__p <- %R0
	@DEBUG_VALUE: __stoa<float, float, char>:__tmp <- %S16
	.loc	7 104 27                @ /usr/bin/../lib/gcc/arm-linux-gnueabihf/6.3.0/../../../../include/c++/6.3.0/ext/new_allocator.h:104:27
.Ltmp122:
	.loc	7 104 46 is_stmt 0      @ /usr/bin/../lib/gcc/arm-linux-gnueabihf/6.3.0/../../../../include/c++/6.3.0/ext/new_allocator.h:104:46
	lsl	r0, r6, #2
.Ltmp229:
	.loc	7 104 27                @ /usr/bin/../lib/gcc/arm-linux-gnueabihf/6.3.0/../../../../include/c++/6.3.0/ext/new_allocator.h:104:27
	bl	_Znwj
.Ltmp230:
	mov	r8, r0
.Ltmp123:
.Ltmp231:
@ BB#29:                                @ %.noexc31
                                        @   in Loop: Header=BB3_19 Depth=2
	@DEBUG_VALUE: allocate:__n <- %R6
	@DEBUG_VALUE: allocate:__n <- %R6
	@DEBUG_VALUE: _M_emplace_back_aux<float>:__len <- %R6
	@DEBUG_VALUE: _M_allocate:__n <- %R6
	@DEBUG_VALUE: __stoa<float, float, char>:__tmp <- %S16
	.loc	11 656 66 is_stmt 1     @ /usr/bin/../lib/gcc/arm-linux-gnueabihf/6.3.0/../../../../include/c++/6.3.0/bits/stl_vector.h:656:66
	ldr	r5, [sp, #84]
	.loc	11 656 40 is_stmt 0     @ /usr/bin/../lib/gcc/arm-linux-gnueabihf/6.3.0/../../../../include/c++/6.3.0/bits/stl_vector.h:656:40
	ldr	r0, [sp, #88]
.Ltmp232:
.LBB3_30:                               @   in Loop: Header=BB3_19 Depth=2
	@DEBUG_VALUE: allocate:__n <- %R6
	@DEBUG_VALUE: allocate:__n <- %R6
	@DEBUG_VALUE: _M_emplace_back_aux<float>:__len <- %R6
	@DEBUG_VALUE: _M_allocate:__n <- %R6
	@DEBUG_VALUE: __stoa<float, float, char>:__tmp <- %S16
	@DEBUG_VALUE: _M_emplace_back_aux<float>:__new_finish <- %R8
	.loc	11 656 50               @ /usr/bin/../lib/gcc/arm-linux-gnueabihf/6.3.0/../../../../include/c++/6.3.0/bits/stl_vector.h:656:50
	sub	r2, r0, r5
	mov	r0, #0
.Ltmp233:
	.loc	53 416 58 is_stmt 1     @ /usr/bin/../lib/gcc/arm-linux-gnueabihf/6.3.0/../../../../include/c++/6.3.0/bits/vector.tcc:416:58
	add	r7, r8, r2
.Ltmp234:
	@DEBUG_VALUE: construct<float, float>:__p <- %R7
	@DEBUG_VALUE: construct<float, float>:__p <- %R7
	@DEBUG_VALUE: _M_emplace_back_aux<float>:__new_finish <- %R7
	.file	55 "/usr/bin/../lib/gcc/arm-linux-gnueabihf/6.3.0/../../../../include/c++/6.3.0/bits" "stl_algobase.h"
	.loc	55 367 8                @ /usr/bin/../lib/gcc/arm-linux-gnueabihf/6.3.0/../../../../include/c++/6.3.0/bits/stl_algobase.h:367:8
	cmp	r0, r2, asr #2
.Ltmp235:
	.loc	7 120 4                 @ /usr/bin/../lib/gcc/arm-linux-gnueabihf/6.3.0/../../../../include/c++/6.3.0/ext/new_allocator.h:120:4
	vstr	s16, [r7]
.Ltmp236:
	@DEBUG_VALUE: __copy_move_a<true, float *, float *>:__simple <- 1
	@DEBUG_VALUE: uninitialized_copy<std::move_iterator<float *>, float *>:__assignable <- 1
	beq	.LBB3_32
.Ltmp237:
@ BB#31:                                @   in Loop: Header=BB3_19 Depth=2
	@DEBUG_VALUE: _M_emplace_back_aux<float>:__new_finish <- %R7
	@DEBUG_VALUE: construct<float, float>:__p <- %R7
	@DEBUG_VALUE: construct<float, float>:__p <- %R7
	@DEBUG_VALUE: allocate:__n <- %R6
	@DEBUG_VALUE: allocate:__n <- %R6
	@DEBUG_VALUE: _M_emplace_back_aux<float>:__len <- %R6
	@DEBUG_VALUE: _M_allocate:__n <- %R6
	@DEBUG_VALUE: __stoa<float, float, char>:__tmp <- %S16
	.loc	55 368 6                @ /usr/bin/../lib/gcc/arm-linux-gnueabihf/6.3.0/../../../../include/c++/6.3.0/bits/stl_algobase.h:368:6
	mov	r0, r8
	mov	r1, r5
	bl	memmove
.Ltmp238:
.LBB3_32:                               @   in Loop: Header=BB3_19 Depth=2
	@DEBUG_VALUE: _M_emplace_back_aux<float>:__new_finish <- %R7
	@DEBUG_VALUE: construct<float, float>:__p <- %R7
	@DEBUG_VALUE: construct<float, float>:__p <- %R7
	@DEBUG_VALUE: allocate:__n <- %R6
	@DEBUG_VALUE: allocate:__n <- %R6
	@DEBUG_VALUE: _M_emplace_back_aux<float>:__len <- %R6
	@DEBUG_VALUE: _M_allocate:__n <- %R6
	@DEBUG_VALUE: __stoa<float, float, char>:__tmp <- %S16
	.loc	53 425 6                @ /usr/bin/../lib/gcc/arm-linux-gnueabihf/6.3.0/../../../../include/c++/6.3.0/bits/vector.tcc:425:6
	add	r7, r7, #4
.Ltmp239:
	@DEBUG_VALUE: _M_emplace_back_aux<float>:__new_finish <- %R7
	.loc	11 177 6                @ /usr/bin/../lib/gcc/arm-linux-gnueabihf/6.3.0/../../../../include/c++/6.3.0/bits/stl_vector.h:177:6
	cmp	r5, #0
	beq	.LBB3_34
.Ltmp240:
@ BB#33:                                @   in Loop: Header=BB3_19 Depth=2
	@DEBUG_VALUE: _M_emplace_back_aux<float>:__new_finish <- %R7
	@DEBUG_VALUE: allocate:__n <- %R6
	@DEBUG_VALUE: allocate:__n <- %R6
	@DEBUG_VALUE: _M_emplace_back_aux<float>:__len <- %R6
	@DEBUG_VALUE: _M_allocate:__n <- %R6
	@DEBUG_VALUE: __stoa<float, float, char>:__tmp <- %S16
	.loc	7 110 9                 @ /usr/bin/../lib/gcc/arm-linux-gnueabihf/6.3.0/../../../../include/c++/6.3.0/ext/new_allocator.h:110:9
	mov	r0, r5
	bl	_ZdlPv
.Ltmp241:
.LBB3_34:                               @ %.noexc29
                                        @   in Loop: Header=BB3_19 Depth=2
	@DEBUG_VALUE: _M_emplace_back_aux<float>:__new_finish <- %R7
	@DEBUG_VALUE: allocate:__n <- %R6
	@DEBUG_VALUE: allocate:__n <- %R6
	@DEBUG_VALUE: _M_emplace_back_aux<float>:__len <- %R6
	@DEBUG_VALUE: _M_allocate:__n <- %R6
	@DEBUG_VALUE: __stoa<float, float, char>:__tmp <- %S16
	add	r4, sp, #60
	.loc	53 441 25               @ /usr/bin/../lib/gcc/arm-linux-gnueabihf/6.3.0/../../../../include/c++/6.3.0/bits/vector.tcc:441:25
	str	r8, [sp, #84]
	.loc	53 443 48               @ /usr/bin/../lib/gcc/arm-linux-gnueabihf/6.3.0/../../../../include/c++/6.3.0/bits/vector.tcc:443:48
	add	r0, r8, r6, lsl #2
	.loc	53 442 26               @ /usr/bin/../lib/gcc/arm-linux-gnueabihf/6.3.0/../../../../include/c++/6.3.0/bits/vector.tcc:442:26
	str	r7, [sp, #88]
	mov	r8, r4
	mov	r4, r10
	.loc	53 443 34               @ /usr/bin/../lib/gcc/arm-linux-gnueabihf/6.3.0/../../../../include/c++/6.3.0/bits/vector.tcc:443:34
	str	r0, [sp, #92]
	mov	r10, #0
	b	.LBB3_19
.Ltmp242:
.LBB3_35:                               @   in Loop: Header=BB3_9 Depth=1
	@DEBUG_VALUE: vector:this <- %R6
	@DEBUG_VALUE: construct<std::vector<float, std::allocator<float> >, const std::vector<float, std::allocator<float> > &>:__p <- %R6
	@DEBUG_VALUE: construct<std::vector<float, std::allocator<float> >, const std::vector<float, std::allocator<float> > &>:__p <- %R6
	.loc	5 31 31 discriminator 1 @ /root/Bela/projects/frek_domen_filtriranje/render.cpp:31:31
	movw	r0, :lower16:.L_MergedGlobals
	movt	r0, :upper16:.L_MergedGlobals
.Ltmp243:
	.loc	11 916 20               @ /usr/bin/../lib/gcc/arm-linux-gnueabihf/6.3.0/../../../../include/c++/6.3.0/bits/stl_vector.h:916:20
	ldrd	r6, r7, [r0, #64]
.Ltmp244:
	.loc	11 916 6 is_stmt 0      @ /usr/bin/../lib/gcc/arm-linux-gnueabihf/6.3.0/../../../../include/c++/6.3.0/bits/stl_vector.h:916:6
	cmp	r6, r7
	beq	.LBB3_42
@ BB#36:                                @   in Loop: Header=BB3_9 Depth=1
.Ltmp245:
	.loc	11 656 66 is_stmt 1     @ /usr/bin/../lib/gcc/arm-linux-gnueabihf/6.3.0/../../../../include/c++/6.3.0/bits/stl_vector.h:656:66
	ldr	r0, [sp, #84]
	mov	r5, #0
	.loc	11 656 40 is_stmt 0     @ /usr/bin/../lib/gcc/arm-linux-gnueabihf/6.3.0/../../../../include/c++/6.3.0/bits/stl_vector.h:656:40
	ldr	r1, [sp, #88]
.Ltmp246:
	.loc	11 91 25 is_stmt 1      @ /usr/bin/../lib/gcc/arm-linux-gnueabihf/6.3.0/../../../../include/c++/6.3.0/bits/stl_vector.h:91:25
	str	r5, [r6]
.Ltmp247:
	.loc	11 656 50               @ /usr/bin/../lib/gcc/arm-linux-gnueabihf/6.3.0/../../../../include/c++/6.3.0/bits/stl_vector.h:656:50
	sub	r0, r1, r0
.Ltmp248:
	.loc	11 91 37                @ /usr/bin/../lib/gcc/arm-linux-gnueabihf/6.3.0/../../../../include/c++/6.3.0/bits/stl_vector.h:91:37
	str	r5, [r6, #4]
	.loc	11 91 50 is_stmt 0      @ /usr/bin/../lib/gcc/arm-linux-gnueabihf/6.3.0/../../../../include/c++/6.3.0/bits/stl_vector.h:91:50
	str	r5, [r6, #8]
.Ltmp249:
	.loc	11 656 50 is_stmt 1     @ /usr/bin/../lib/gcc/arm-linux-gnueabihf/6.3.0/../../../../include/c++/6.3.0/bits/stl_vector.h:656:50
	asr	r7, r0, #2
.Ltmp250:
	@DEBUG_VALUE: _Vector_base:__n <- %R7
	@DEBUG_VALUE: _M_create_storage:__n <- %R7
	@DEBUG_VALUE: _M_allocate:__n <- %R7
	@DEBUG_VALUE: allocate:__n <- %R7
	@DEBUG_VALUE: allocate:__n <- %R7
	.loc	11 170 9                @ /usr/bin/../lib/gcc/arm-linux-gnueabihf/6.3.0/../../../../include/c++/6.3.0/bits/stl_vector.h:170:9
	cmp	r5, r0, asr #2
	beq	.LBB3_39
.Ltmp251:
@ BB#37:                                @   in Loop: Header=BB3_9 Depth=1
	@DEBUG_VALUE: allocate:__n <- %R7
	@DEBUG_VALUE: allocate:__n <- %R7
	@DEBUG_VALUE: _M_allocate:__n <- %R7
	@DEBUG_VALUE: _M_create_storage:__n <- %R7
	@DEBUG_VALUE: _Vector_base:__n <- %R7
	.loc	7 101 6                 @ /usr/bin/../lib/gcc/arm-linux-gnueabihf/6.3.0/../../../../include/c++/6.3.0/ext/new_allocator.h:101:6
	cmp	r7, #1073741824
	bhs	.LBB3_125
.Ltmp252:
@ BB#38:                                @ %_ZNSt16allocator_traitsISaIfEE8allocateERS0_j.exit.i.i.i.i.i.i.i
                                        @   in Loop: Header=BB3_9 Depth=1
	@DEBUG_VALUE: allocate:__n <- %R7
	@DEBUG_VALUE: allocate:__n <- %R7
	@DEBUG_VALUE: _M_allocate:__n <- %R7
	@DEBUG_VALUE: _M_create_storage:__n <- %R7
	@DEBUG_VALUE: _Vector_base:__n <- %R7
	.loc	7 104 27                @ /usr/bin/../lib/gcc/arm-linux-gnueabihf/6.3.0/../../../../include/c++/6.3.0/ext/new_allocator.h:104:27
.Ltmp112:
	bl	_Znwj
	mov	r5, r0
.Ltmp113:
.Ltmp253:
.LBB3_39:                               @   in Loop: Header=BB3_9 Depth=1
	@DEBUG_VALUE: allocate:__n <- %R7
	@DEBUG_VALUE: allocate:__n <- %R7
	@DEBUG_VALUE: _M_allocate:__n <- %R7
	@DEBUG_VALUE: _M_create_storage:__n <- %R7
	@DEBUG_VALUE: _Vector_base:__n <- %R7
	@DEBUG_VALUE: __uninitialized_copy_a<__gnu_cxx::__normal_iterator<const float *, std::vector<float, std::allocator<float> > >, float *, float>:__result <- %R5
	.loc	11 185 25               @ /usr/bin/../lib/gcc/arm-linux-gnueabihf/6.3.0/../../../../include/c++/6.3.0/bits/stl_vector.h:185:25
	str	r5, [r6]
	.loc	11 187 59               @ /usr/bin/../lib/gcc/arm-linux-gnueabihf/6.3.0/../../../../include/c++/6.3.0/bits/stl_vector.h:187:59
	add	r0, r5, r7, lsl #2
	.loc	11 186 26               @ /usr/bin/../lib/gcc/arm-linux-gnueabihf/6.3.0/../../../../include/c++/6.3.0/bits/stl_vector.h:186:26
	str	r5, [r6, #4]
	.loc	11 187 34               @ /usr/bin/../lib/gcc/arm-linux-gnueabihf/6.3.0/../../../../include/c++/6.3.0/bits/stl_vector.h:187:34
	str	r0, [r6, #8]
.Ltmp254:
	.loc	11 558 45               @ /usr/bin/../lib/gcc/arm-linux-gnueabihf/6.3.0/../../../../include/c++/6.3.0/bits/stl_vector.h:558:45
	ldr	r1, [sp, #84]
.Ltmp255:
	.loc	11 576 45               @ /usr/bin/../lib/gcc/arm-linux-gnueabihf/6.3.0/../../../../include/c++/6.3.0/bits/stl_vector.h:576:45
	ldr	r0, [sp, #88]
.Ltmp256:
	@DEBUG_VALUE: __copy_move_a<false, const float *, float *>:__simple <- 1
	@DEBUG_VALUE: uninitialized_copy<__gnu_cxx::__normal_iterator<const float *, std::vector<float, std::allocator<float> > >, float *>:__assignable <- 1
	.loc	55 366 34               @ /usr/bin/../lib/gcc/arm-linux-gnueabihf/6.3.0/../../../../include/c++/6.3.0/bits/stl_algobase.h:366:34
	sub	r2, r0, r1
	asr	r7, r2, #2
.Ltmp257:
	@DEBUG_VALUE: __copy_m<float>:_Num <- %R7
	.loc	55 367 8                @ /usr/bin/../lib/gcc/arm-linux-gnueabihf/6.3.0/../../../../include/c++/6.3.0/bits/stl_algobase.h:367:8
	cmp	r10, r2, asr #2
	beq	.LBB3_41
.Ltmp258:
@ BB#40:                                @   in Loop: Header=BB3_9 Depth=1
	@DEBUG_VALUE: __copy_m<float>:_Num <- %R7
	@DEBUG_VALUE: __uninitialized_copy_a<__gnu_cxx::__normal_iterator<const float *, std::vector<float, std::allocator<float> > >, float *, float>:__result <- %R5
	.loc	55 368 6                @ /usr/bin/../lib/gcc/arm-linux-gnueabihf/6.3.0/../../../../include/c++/6.3.0/bits/stl_algobase.h:368:6
	mov	r0, r5
	bl	memmove
.Ltmp259:
.LBB3_41:                               @ %_ZNSt16allocator_traitsISaISt6vectorIfSaIfEEEE9constructIS2_JRKS2_EEEvRS3_PT_DpOT0_.exit.i
                                        @   in Loop: Header=BB3_9 Depth=1
	@DEBUG_VALUE: __copy_m<float>:_Num <- %R7
	@DEBUG_VALUE: __uninitialized_copy_a<__gnu_cxx::__normal_iterator<const float *, std::vector<float, std::allocator<float> > >, float *, float>:__result <- %R5
	.loc	55 369 20               @ /usr/bin/../lib/gcc/arm-linux-gnueabihf/6.3.0/../../../../include/c++/6.3.0/bits/stl_algobase.h:369:20
	add	r0, r5, r7, lsl #2
.Ltmp260:
	.loc	11 323 33 discriminator 1 @ /usr/bin/../lib/gcc/arm-linux-gnueabihf/6.3.0/../../../../include/c++/6.3.0/bits/stl_vector.h:323:33
	str	r0, [r6, #4]
.Ltmp261:
	.loc	5 31 31 discriminator 1 @ /root/Bela/projects/frek_domen_filtriranje/render.cpp:31:31
	movw	r0, :lower16:.L_MergedGlobals
	movt	r0, :upper16:.L_MergedGlobals
	mov	r1, r0
.Ltmp262:
	.loc	11 920 6                @ /usr/bin/../lib/gcc/arm-linux-gnueabihf/6.3.0/../../../../include/c++/6.3.0/bits/stl_vector.h:920:6
	ldr	r0, [r1, #64]
	add	r0, r0, #12
	str	r0, [r1, #64]
	b	.LBB3_43
.Ltmp263:
.LBB3_42:                               @   in Loop: Header=BB3_9 Depth=1
	.loc	11 924 4                @ /usr/bin/../lib/gcc/arm-linux-gnueabihf/6.3.0/../../../../include/c++/6.3.0/bits/stl_vector.h:924:4
.Ltmp117:
	add	r0, r0, #60
.Ltmp264:
	@DEBUG_VALUE: push_back:this <- %R0
	add	r1, sp, #84
	bl	_ZNSt6vectorIS_IfSaIfEESaIS1_EE19_M_emplace_back_auxIJRKS1_EEEvDpOT_
.Ltmp265:
.Ltmp118:
.Ltmp266:
.LBB3_43:                               @ %_ZNSt6vectorIS_IfSaIfEESaIS1_EE9push_backERKS1_.exit
                                        @   in Loop: Header=BB3_9 Depth=1
	.loc	19 136 28               @ /usr/bin/../lib/gcc/arm-linux-gnueabihf/6.3.0/../../../../include/c++/6.3.0/bits/basic_string.h:136:28
	ldr	r0, [sp, #304]
.Ltmp267:
	@DEBUG_VALUE: deallocate:__p <- %R0
	@DEBUG_VALUE: deallocate:__p <- %R0
	.loc	19 180 6                @ /usr/bin/../lib/gcc/arm-linux-gnueabihf/6.3.0/../../../../include/c++/6.3.0/bits/basic_string.h:180:6
	ldr	r1, [sp, #56]           @ 4-byte Reload
	cmp	r0, r1
	beq	.LBB3_45
.Ltmp268:
@ BB#44:                                @   in Loop: Header=BB3_9 Depth=1
	@DEBUG_VALUE: deallocate:__p <- %R0
	@DEBUG_VALUE: deallocate:__p <- %R0
	.loc	7 110 9                 @ /usr/bin/../lib/gcc/arm-linux-gnueabihf/6.3.0/../../../../include/c++/6.3.0/ext/new_allocator.h:110:9
	bl	_ZdlPv
.Ltmp269:
.LBB3_45:                               @ %_ZNSt7__cxx1112basic_stringIcSt11char_traitsIcESaIcEED2Ev.exit
                                        @   in Loop: Header=BB3_9 Depth=1
	ldr	r0, [sp, #40]           @ 4-byte Reload
.Ltmp270:
	.loc	22 718 7                @ /usr/bin/../lib/gcc/arm-linux-gnueabihf/6.3.0/../../../../include/c++/6.3.0/sstream:718:7
	str	r0, [r11, #-560]
	ldr	r1, [sp, #32]           @ 4-byte Reload
	ldr	r0, [r0, #-12]
.Ltmp271:
	@DEBUG_VALUE: ~basic_stringstream:this <- %R9
	@DEBUG_VALUE: ~basic_stringstream:this <- %R9
	@DEBUG_VALUE: ss <- [%R9+0]
	str	r1, [r9, r0]
	ldr	r0, [sp, #36]           @ 4-byte Reload
	str	r0, [r11, #-552]
.Ltmp272:
	.loc	51 272 25               @ /usr/bin/../lib/gcc/arm-linux-gnueabihf/6.3.0/../../../../include/c++/6.3.0/bits/sstream.tcc:272:25
	ldr	r0, [sp, #28]           @ 4-byte Reload
	str	r0, [r11, #-548]
.Ltmp273:
	.loc	19 136 28               @ /usr/bin/../lib/gcc/arm-linux-gnueabihf/6.3.0/../../../../include/c++/6.3.0/bits/basic_string.h:136:28
	ldr	r0, [r11, #-512]
.Ltmp274:
	@DEBUG_VALUE: deallocate:__p <- %R0
	@DEBUG_VALUE: deallocate:__p <- %R0
	.loc	19 180 6                @ /usr/bin/../lib/gcc/arm-linux-gnueabihf/6.3.0/../../../../include/c++/6.3.0/bits/basic_string.h:180:6
	ldr	r1, [sp, #16]           @ 4-byte Reload
	cmp	r0, r1
	beq	.LBB3_47
.Ltmp275:
@ BB#46:                                @   in Loop: Header=BB3_9 Depth=1
	@DEBUG_VALUE: deallocate:__p <- %R0
	@DEBUG_VALUE: deallocate:__p <- %R0
	@DEBUG_VALUE: ss <- [%R9+0]
	@DEBUG_VALUE: ~basic_stringstream:this <- %R9
	@DEBUG_VALUE: ~basic_stringstream:this <- %R9
	.loc	7 110 9                 @ /usr/bin/../lib/gcc/arm-linux-gnueabihf/6.3.0/../../../../include/c++/6.3.0/ext/new_allocator.h:110:9
	bl	_ZdlPv
.Ltmp276:
.LBB3_47:                               @ %_ZNSt7__cxx1118basic_stringstreamIcSt11char_traitsIcESaIcEED1Ev.exit
                                        @   in Loop: Header=BB3_9 Depth=1
	@DEBUG_VALUE: ss <- [%R9+0]
	@DEBUG_VALUE: ~basic_stringstream:this <- %R9
	@DEBUG_VALUE: ~basic_stringstream:this <- %R9
	.loc	49 198 7                @ /usr/bin/../lib/gcc/arm-linux-gnueabihf/6.3.0/../../../../include/c++/6.3.0/streambuf:198:7
	ldr	r0, [sp, #44]           @ 4-byte Reload
	str	r0, [r11, #-548]
.Ltmp277:
	.loc	49 198 9 is_stmt 0      @ /usr/bin/../lib/gcc/arm-linux-gnueabihf/6.3.0/../../../../include/c++/6.3.0/streambuf:198:9
	ldr	r0, [sp, #20]           @ 4-byte Reload
	bl	_ZNSt6localeD1Ev
	ldr	r0, [sp, #48]           @ 4-byte Reload
.Ltmp278:
	.loc	50 104 7 is_stmt 1      @ /usr/bin/../lib/gcc/arm-linux-gnueabihf/6.3.0/../../../../include/c++/6.3.0/istream:104:7
	str	r0, [r11, #-560]
	ldr	r1, [sp, #52]           @ 4-byte Reload
	ldr	r0, [r0, #-12]
	str	r1, [r9, r0]
.Ltmp279:
	.loc	48 282 22               @ /usr/bin/../lib/gcc/arm-linux-gnueabihf/6.3.0/../../../../include/c++/6.3.0/bits/basic_ios.h:282:22
	ldr	r0, [sp, #24]           @ 4-byte Reload
.Ltmp280:
	.loc	50 104 19               @ /usr/bin/../lib/gcc/arm-linux-gnueabihf/6.3.0/../../../../include/c++/6.3.0/istream:104:19
	str	r10, [r11, #-556]
.Ltmp281:
	.loc	48 282 22               @ /usr/bin/../lib/gcc/arm-linux-gnueabihf/6.3.0/../../../../include/c++/6.3.0/bits/basic_ios.h:282:22
	bl	_ZNSt8ios_baseD2Ev
.Ltmp282:
	.loc	11 160 37               @ /usr/bin/../lib/gcc/arm-linux-gnueabihf/6.3.0/../../../../include/c++/6.3.0/bits/stl_vector.h:160:37
	ldr	r0, [sp, #84]
.Ltmp283:
	@DEBUG_VALUE: _M_deallocate:__p <- %R0
	@DEBUG_VALUE: deallocate:__p <- %R0
	@DEBUG_VALUE: deallocate:__p <- %R0
	.loc	11 177 6                @ /usr/bin/../lib/gcc/arm-linux-gnueabihf/6.3.0/../../../../include/c++/6.3.0/bits/stl_vector.h:177:6
	cmp	r0, #0
	beq	.LBB3_49
.Ltmp284:
@ BB#48:                                @   in Loop: Header=BB3_9 Depth=1
	@DEBUG_VALUE: deallocate:__p <- %R0
	@DEBUG_VALUE: deallocate:__p <- %R0
	@DEBUG_VALUE: _M_deallocate:__p <- %R0
	@DEBUG_VALUE: ss <- [%R9+0]
	@DEBUG_VALUE: ~basic_stringstream:this <- %R9
	@DEBUG_VALUE: ~basic_stringstream:this <- %R9
	.loc	7 110 9                 @ /usr/bin/../lib/gcc/arm-linux-gnueabihf/6.3.0/../../../../include/c++/6.3.0/ext/new_allocator.h:110:9
	bl	_ZdlPv
.Ltmp285:
.LBB3_49:                               @ %_ZNSt6vectorIfSaIfEED2Ev.exit
                                        @   in Loop: Header=BB3_9 Depth=1
	@DEBUG_VALUE: ss <- [%R9+0]
	@DEBUG_VALUE: ~basic_stringstream:this <- %R9
	@DEBUG_VALUE: ~basic_stringstream:this <- %R9
	.loc	19 5382 40              @ /usr/bin/../lib/gcc/arm-linux-gnueabihf/6.3.0/../../../../include/c++/6.3.0/bits/basic_string.h:5382:40
	ldr	r0, [r11, #-328]
	ldr	r1, [r0, #-12]
	sub	r0, r11, #328
	add	r1, r0, r1
	@DEBUG_VALUE: widen:__c <- 10
.Ltmp286:
	.loc	48 450 30               @ /usr/bin/../lib/gcc/arm-linux-gnueabihf/6.3.0/../../../../include/c++/6.3.0/bits/basic_ios.h:450:30
	ldr	r5, [r1, #124]
.Ltmp287:
	@DEBUG_VALUE: __check_facet<std::ctype<char> >:__f <- %R5
	.loc	48 49 11                @ /usr/bin/../lib/gcc/arm-linux-gnueabihf/6.3.0/../../../../include/c++/6.3.0/bits/basic_ios.h:49:11
	cmp	r5, #0
	bne	.LBB3_9
.Ltmp288:
.LBB3_50:                               @ %._crit_edge237
	@DEBUG_VALUE: __check_facet<std::ctype<char> >:__f <- %R5
	.loc	48 50 2                 @ /usr/bin/../lib/gcc/arm-linux-gnueabihf/6.3.0/../../../../include/c++/6.3.0/bits/basic_ios.h:50:2
.Ltmp131:
	mov	lr, pc
	b	_ZSt16__throw_bad_castv
.Ltmp132:
.Ltmp289:
@ BB#51:                                @ %.noexc
	@DEBUG_VALUE: __check_facet<std::ctype<char> >:__f <- %R5
.LBB3_52:
	.loc	5 43 20                 @ /root/Bela/projects/frek_domen_filtriranje/render.cpp:43:20
	movw	r0, :lower16:stderr
	mov	r4, #0
	movt	r0, :upper16:stderr
	ldr	r0, [r0]
	.loc	5 43 9 is_stmt 0        @ /root/Bela/projects/frek_domen_filtriranje/render.cpp:43:9
.Ltmp48:
	movw	r1, :lower16:.L.str.9
	movt	r1, :upper16:.L.str.9
	bl	rt_fprintf
.Ltmp49:
	b	.LBB3_112
.Ltmp290:
.LBB3_53:
	@DEBUG_VALUE: widen:this <- %R5
	@DEBUG_VALUE: __check_facet<std::ctype<char> >:__f <- %R5
	@DEBUG_VALUE: close:this <- undef
	sub	r0, r11, #328
.Ltmp291:
	.loc	47 635 7 is_stmt 1      @ /usr/bin/../lib/gcc/arm-linux-gnueabihf/6.3.0/../../../../include/c++/6.3.0/fstream:635:7
	add	r5, r0, #8
.Ltmp292:
	.loc	47 635 18 is_stmt 0     @ /usr/bin/../lib/gcc/arm-linux-gnueabihf/6.3.0/../../../../include/c++/6.3.0/fstream:635:18
.Ltmp58:
	mov	r0, r5
	bl	_ZNSt13basic_filebufIcSt11char_traitsIcEE5closeEv
.Ltmp59:
.Ltmp293:
@ BB#54:                                @ %.noexc40
	.loc	47 635 6                @ /usr/bin/../lib/gcc/arm-linux-gnueabihf/6.3.0/../../../../include/c++/6.3.0/fstream:635:6
	cmp	r0, #0
	bne	.LBB3_56
@ BB#55:
.Ltmp294:
	.loc	47 636 10 is_stmt 1     @ /usr/bin/../lib/gcc/arm-linux-gnueabihf/6.3.0/../../../../include/c++/6.3.0/fstream:636:10
	ldr	r0, [r11, #-328]
	sub	r1, r11, #328
	ldr	r0, [r0, #-12]
	add	r0, r1, r0
.Ltmp295:
	@DEBUG_VALUE: rdstate:this <- %R0
	@DEBUG_VALUE: setstate:__state <- 4
	@DEBUG_VALUE: setstate:this <- %R0
	.loc	48 138 16               @ /usr/bin/../lib/gcc/arm-linux-gnueabihf/6.3.0/../../../../include/c++/6.3.0/bits/basic_ios.h:138:16
	ldr	r1, [r0, #20]
.Ltmp296:
	@DEBUG_VALUE: operator|:__b <- 4
	@DEBUG_VALUE: operator|:__a <- %R1
	.loc	3 170 47                @ /usr/bin/../lib/gcc/arm-linux-gnueabihf/6.3.0/../../../../include/c++/6.3.0/bits/ios_base.h:170:47
	orr	r1, r1, #4
.Ltmp297:
	.loc	48 158 15 discriminator 2 @ /usr/bin/../lib/gcc/arm-linux-gnueabihf/6.3.0/../../../../include/c++/6.3.0/bits/basic_ios.h:158:15
.Ltmp60:
	bl	_ZNSt9basic_iosIcSt11char_traitsIcEE5clearESt12_Ios_Iostate
.Ltmp298:
.Ltmp61:
.Ltmp299:
.LBB3_56:                               @ %_ZNSt14basic_ifstreamIcSt11char_traitsIcEE5closeEv.exit
	.loc	5 58 19                 @ /root/Bela/projects/frek_domen_filtriranje/render.cpp:58:19
.Ltmp62:
	add	r6, sp, #304
	movw	r1, :lower16:.L.str.10
	movt	r1, :upper16:.L.str.10
	mov	r2, #8
	mov	r0, r6
	bl	_ZNSt14basic_ifstreamIcSt11char_traitsIcEEC1EPKcSt13_Ios_Openmode
.Ltmp63:
@ BB#57:
.Ltmp300:
	@DEBUG_VALUE: is_open:this <- %R6
	.loc	47 253 16               @ /usr/bin/../lib/gcc/arm-linux-gnueabihf/6.3.0/../../../../include/c++/6.3.0/fstream:253:16
	add	r0, r6, #64
	.loc	47 253 24 is_stmt 0     @ /usr/bin/../lib/gcc/arm-linux-gnueabihf/6.3.0/../../../../include/c++/6.3.0/fstream:253:24
	bl	_ZNKSt12__basic_fileIcE7is_openEv
.Ltmp301:
	.loc	5 59 9 is_stmt 1 discriminator 1 @ /root/Bela/projects/frek_domen_filtriranje/render.cpp:59:9
	cmp	r0, #0
.Ltmp302:
	@DEBUG_VALUE: is_open:this <- undef
	beq	.LBB3_103
@ BB#58:
.Ltmp303:
	@DEBUG_VALUE: setup:line1 <- [%R9+0]
	@DEBUG_VALUE: basic_string:this <- %R9
	@DEBUG_VALUE: _M_local_data:this <- %R9
	@DEBUG_VALUE: _M_set_length:this <- %R9
	@DEBUG_VALUE: _M_set_length:__n <- 0
	@DEBUG_VALUE: _M_length:this <- %R9
	@DEBUG_VALUE: _M_data:this <- %R9
	@DEBUG_VALUE: getline<char, std::char_traits<char>, std::allocator<char> >:__str <- %R9
	.loc	19 142 51               @ /usr/bin/../lib/gcc/arm-linux-gnueabihf/6.3.0/../../../../include/c++/6.3.0/bits/basic_string.h:142:51
	add	r0, r9, #8
	str	r0, [sp, #8]            @ 4-byte Spill
.Ltmp304:
	.loc	19 110 25               @ /usr/bin/../lib/gcc/arm-linux-gnueabihf/6.3.0/../../../../include/c++/6.3.0/bits/basic_string.h:110:25
	str	r0, [r11, #-560]
	mov	r9, #0
.Ltmp305:
	@DEBUG_VALUE: _M_length:__length <- 0
	.loc	19 5382 40              @ /usr/bin/../lib/gcc/arm-linux-gnueabihf/6.3.0/../../../../include/c++/6.3.0/bits/basic_string.h:5382:40
	ldr	r0, [sp, #304]
	mov	r1, r6
.Ltmp306:
	.loc	19 132 26               @ /usr/bin/../lib/gcc/arm-linux-gnueabihf/6.3.0/../../../../include/c++/6.3.0/bits/basic_string.h:132:26
	str	r9, [r11, #-556]
.Ltmp307:
	@DEBUG_VALUE: assign:__c1 <- [%SP+8]
	str	r5, [sp, #4]            @ 4-byte Spill
.Ltmp308:
	.loc	21 243 14               @ /usr/bin/../lib/gcc/arm-linux-gnueabihf/6.3.0/../../../../include/c++/6.3.0/bits/char_traits.h:243:14
	strb	r9, [r11, #-552]
.Ltmp309:
	.loc	19 5382 40              @ /usr/bin/../lib/gcc/arm-linux-gnueabihf/6.3.0/../../../../include/c++/6.3.0/bits/basic_string.h:5382:40
	ldr	r0, [r0, #-12]
	add	r0, r6, r0
.Ltmp310:
	@DEBUG_VALUE: widen:__c <- 10
	.loc	48 450 30               @ /usr/bin/../lib/gcc/arm-linux-gnueabihf/6.3.0/../../../../include/c++/6.3.0/bits/basic_ios.h:450:30
	ldr	r5, [r0, #124]
.Ltmp311:
	@DEBUG_VALUE: __check_facet<std::ctype<char> >:__f <- %R5
	.loc	48 49 11                @ /usr/bin/../lib/gcc/arm-linux-gnueabihf/6.3.0/../../../../include/c++/6.3.0/bits/basic_ios.h:49:11
	cmp	r5, #0
	beq	.LBB3_101
.Ltmp312:
@ BB#59:                                @ %_ZSt13__check_facetISt5ctypeIcEERKT_PS3_.exit.i.i43.lr.ph
	@DEBUG_VALUE: __check_facet<std::ctype<char> >:__f <- %R5
	@DEBUG_VALUE: assign:__c1 <- [%SP+8]
	add	r0, sp, #84
	sub	r10, r11, #48
.Ltmp313:
	.loc	48 282 22               @ /usr/bin/../lib/gcc/arm-linux-gnueabihf/6.3.0/../../../../include/c++/6.3.0/bits/basic_ios.h:282:22
	add	r2, r0, #72
.Ltmp314:
	.loc	49 198 9                @ /usr/bin/../lib/gcc/arm-linux-gnueabihf/6.3.0/../../../../include/c++/6.3.0/streambuf:198:9
	str	r2, [sp, #24]           @ 4-byte Spill
	add	r2, r0, #40
.Ltmp315:
	.loc	19 152 57               @ /usr/bin/../lib/gcc/arm-linux-gnueabihf/6.3.0/../../../../include/c++/6.3.0/bits/basic_string.h:152:57
	add	r0, r0, #56
.Ltmp316:
	.loc	19 142 51               @ /usr/bin/../lib/gcc/arm-linux-gnueabihf/6.3.0/../../../../include/c++/6.3.0/bits/basic_string.h:142:51
	str	r0, [sp, #16]           @ 4-byte Spill
	add	r0, r8, #8
.Ltmp317:
	.loc	19 152 57               @ /usr/bin/../lib/gcc/arm-linux-gnueabihf/6.3.0/../../../../include/c++/6.3.0/bits/basic_string.h:152:57
	str	r2, [sp, #20]           @ 4-byte Spill
	str	r0, [sp, #56]           @ 4-byte Spill
.Ltmp318:
.LBB3_60:                               @ %_ZSt13__check_facetISt5ctypeIcEERKT_PS3_.exit.i.i43
                                        @ =>This Loop Header: Depth=1
                                        @     Child Loop BB3_70 Depth 2
	@DEBUG_VALUE: __check_facet<std::ctype<char> >:__f <- %R5
	@DEBUG_VALUE: widen:__c <- 10
	@DEBUG_VALUE: widen:this <- %R5
	.loc	52 874 6                @ /usr/bin/../lib/gcc/arm-linux-gnueabihf/6.3.0/../../../../include/c++/6.3.0/bits/locale_facets.h:874:6
	ldrb	r0, [r5, #28]
.Ltmp319:
	.loc	52 874 6 is_stmt 0      @ /usr/bin/../lib/gcc/arm-linux-gnueabihf/6.3.0/../../../../include/c++/6.3.0/bits/locale_facets.h:874:6
	cmp	r0, #0
	beq	.LBB3_62
.Ltmp320:
@ BB#61:                                @   in Loop: Header=BB3_60 Depth=1
	@DEBUG_VALUE: widen:this <- %R5
	@DEBUG_VALUE: __check_facet<std::ctype<char> >:__f <- %R5
	.loc	52 875 11 is_stmt 1     @ /usr/bin/../lib/gcc/arm-linux-gnueabihf/6.3.0/../../../../include/c++/6.3.0/bits/locale_facets.h:875:11
	ldrb	r2, [r5, #39]
	b	.LBB3_65
.Ltmp321:
.LBB3_62:                               @   in Loop: Header=BB3_60 Depth=1
	@DEBUG_VALUE: widen:this <- %R5
	@DEBUG_VALUE: __check_facet<std::ctype<char> >:__f <- %R5
	.loc	52 876 8                @ /usr/bin/../lib/gcc/arm-linux-gnueabihf/6.3.0/../../../../include/c++/6.3.0/bits/locale_facets.h:876:8
.Ltmp67:
	mov	r0, r5
	bl	_ZNKSt5ctypeIcE13_M_widen_initEv
.Ltmp68:
.Ltmp322:
@ BB#63:                                @ %.noexc47
                                        @   in Loop: Header=BB3_60 Depth=1
	@DEBUG_VALUE: widen:this <- %R5
	@DEBUG_VALUE: __check_facet<std::ctype<char> >:__f <- %R5
	.loc	52 877 15               @ /usr/bin/../lib/gcc/arm-linux-gnueabihf/6.3.0/../../../../include/c++/6.3.0/bits/locale_facets.h:877:15
	ldr	r0, [r5]
	ldr	r2, [r0, #24]
.Ltmp69:
	mov	r0, r5
	mov	r1, #10
	blx	r2
	mov	r2, r0
.Ltmp70:
.Ltmp323:
@ BB#64:                                @   in Loop: Header=BB3_60 Depth=1
	@DEBUG_VALUE: widen:this <- %R5
	@DEBUG_VALUE: __check_facet<std::ctype<char> >:__f <- %R5
	add	r1, sp, #304
.Ltmp324:
.LBB3_65:                               @ %_ZNKSt9basic_iosIcSt11char_traitsIcEE5widenEc.exit.i45
                                        @   in Loop: Header=BB3_60 Depth=1
	@DEBUG_VALUE: widen:this <- %R5
	@DEBUG_VALUE: __check_facet<std::ctype<char> >:__f <- %R5
	.loc	19 5382 14 discriminator 1 @ /usr/bin/../lib/gcc/arm-linux-gnueabihf/6.3.0/../../../../include/c++/6.3.0/bits/basic_string.h:5382:14
.Ltmp71:
	mov	r0, r1
	sub	r1, r11, #560
	bl	_ZSt7getlineIcSt11char_traitsIcESaIcEERSt13basic_istreamIT_T0_ES7_RNSt7__cxx1112basic_stringIS4_S5_T1_EES4_
.Ltmp72:
.Ltmp325:
@ BB#66:                                @   in Loop: Header=BB3_60 Depth=1
	@DEBUG_VALUE: widen:this <- %R5
	@DEBUG_VALUE: __check_facet<std::ctype<char> >:__f <- %R5
	.loc	5 64 12 discriminator 2 @ /root/Bela/projects/frek_domen_filtriranje/render.cpp:64:12
	ldr	r1, [r0]
	ldr	r1, [r1, #-12]
	add	r0, r0, r1
.Ltmp326:
	@DEBUG_VALUE: operator&:__b <- 5
	.loc	5 64 5 is_stmt 0 discriminator 3 @ /root/Bela/projects/frek_domen_filtriranje/render.cpp:64:5
	ldrb	r0, [r0, #20]
	tst	r0, #5
	bne	.LBB3_104
.Ltmp327:
@ BB#67:                                @   in Loop: Header=BB3_60 Depth=1
	@DEBUG_VALUE: widen:this <- %R5
	@DEBUG_VALUE: __check_facet<std::ctype<char> >:__f <- %R5
	.loc	11 87 22 is_stmt 1      @ /usr/bin/../lib/gcc/arm-linux-gnueabihf/6.3.0/../../../../include/c++/6.3.0/bits/stl_vector.h:87:22
	str	r9, [sp, #292]
	.loc	11 87 34 is_stmt 0      @ /usr/bin/../lib/gcc/arm-linux-gnueabihf/6.3.0/../../../../include/c++/6.3.0/bits/stl_vector.h:87:34
	str	r9, [sp, #296]
	.loc	11 87 47                @ /usr/bin/../lib/gcc/arm-linux-gnueabihf/6.3.0/../../../../include/c++/6.3.0/bits/stl_vector.h:87:47
	str	r9, [sp, #300]
.Ltmp328:
	.loc	5 66 27 is_stmt 1 discriminator 1 @ /root/Bela/projects/frek_domen_filtriranje/render.cpp:66:27
.Ltmp78:
	add	r0, sp, #84
	sub	r1, r11, #560
	mov	r2, #24
	bl	_ZNSt7__cxx1118basic_stringstreamIcSt11char_traitsIcESaIcEEC1ERKNS_12basic_stringIcS2_S3_EESt13_Ios_Openmode
.Ltmp79:
.Ltmp329:
@ BB#68:                                @   in Loop: Header=BB3_60 Depth=1
	@DEBUG_VALUE: widen:this <- %R5
	@DEBUG_VALUE: __check_facet<std::ctype<char> >:__f <- %R5
	.loc	19 110 25               @ /usr/bin/../lib/gcc/arm-linux-gnueabihf/6.3.0/../../../../include/c++/6.3.0/bits/basic_string.h:110:25
	ldr	r0, [sp, #56]           @ 4-byte Reload
	str	r0, [sp, #60]
.Ltmp330:
	@DEBUG_VALUE: _M_length:__length <- 0
	@DEBUG_VALUE: _M_set_length:__n <- 0
	.loc	19 132 26               @ /usr/bin/../lib/gcc/arm-linux-gnueabihf/6.3.0/../../../../include/c++/6.3.0/bits/basic_string.h:132:26
	str	r9, [sp, #64]
.Ltmp331:
	.loc	21 243 14               @ /usr/bin/../lib/gcc/arm-linux-gnueabihf/6.3.0/../../../../include/c++/6.3.0/bits/char_traits.h:243:14
	strb	r9, [sp, #68]
	b	.LBB3_70
.Ltmp332:
.LBB3_69:                               @   in Loop: Header=BB3_70 Depth=2
	@DEBUG_VALUE: construct<float, float>:__p <- %R0
	@DEBUG_VALUE: construct<float, float>:__p <- %R0
	@DEBUG_VALUE: __stoa<float, float, char>:__tmp <- %S16
	@DEBUG_VALUE: __stoa<float, float, char>:__str <- %R6
	.loc	7 120 4                 @ /usr/bin/../lib/gcc/arm-linux-gnueabihf/6.3.0/../../../../include/c++/6.3.0/ext/new_allocator.h:120:4
	vstmia	r0!, {s16}
.Ltmp333:
	.loc	53 98 6                 @ /usr/bin/../lib/gcc/arm-linux-gnueabihf/6.3.0/../../../../include/c++/6.3.0/bits/vector.tcc:98:6
	str	r0, [sp, #296]
.Ltmp334:
.LBB3_70:                               @ %_ZNSt6vectorIfSaIfEE9push_backEOf.exit57
                                        @   Parent Loop BB3_60 Depth=1
                                        @ =>  This Inner Loop Header: Depth=2
	.loc	5 68 16 discriminator 1 @ /root/Bela/projects/frek_domen_filtriranje/render.cpp:68:16
.Ltmp81:
	add	r0, sp, #84
	mov	r1, r8
	mov	r2, #44
	bl	_ZSt7getlineIcSt11char_traitsIcESaIcEERSt13basic_istreamIT_T0_ES7_RNSt7__cxx1112basic_stringIS4_S5_T1_EES4_
.Ltmp82:
@ BB#71:                                @   in Loop: Header=BB3_70 Depth=2
	.loc	5 68 16 is_stmt 0 discriminator 2 @ /root/Bela/projects/frek_domen_filtriranje/render.cpp:68:16
	ldr	r1, [r0]
	ldr	r1, [r1, #-12]
	add	r0, r0, r1
.Ltmp335:
	@DEBUG_VALUE: operator&:__b <- 5
	.loc	5 68 9 discriminator 3  @ /root/Bela/projects/frek_domen_filtriranje/render.cpp:68:9
	ldrb	r0, [r0, #20]
	tst	r0, #5
	bne	.LBB3_86
@ BB#72:                                @   in Loop: Header=BB3_70 Depth=2
.Ltmp336:
	.loc	19 136 28 is_stmt 1     @ /usr/bin/../lib/gcc/arm-linux-gnueabihf/6.3.0/../../../../include/c++/6.3.0/bits/basic_string.h:136:28
	ldr	r6, [sp, #60]
.Ltmp337:
	@DEBUG_VALUE: __stoa<float, float, char>:__str <- %R6
	.loc	54 63 29                @ /usr/bin/../lib/gcc/arm-linux-gnueabihf/6.3.0/../../../../include/c++/6.3.0/ext/string_conversions.h:63:29
	bl	__errno_location
	mov	r5, r0
.Ltmp338:
	.loc	54 68 27                @ /usr/bin/../lib/gcc/arm-linux-gnueabihf/6.3.0/../../../../include/c++/6.3.0/ext/string_conversions.h:68:27
	mov	r0, r6
	mov	r1, r10
.Ltmp339:
	.loc	54 63 28                @ /usr/bin/../lib/gcc/arm-linux-gnueabihf/6.3.0/../../../../include/c++/6.3.0/ext/string_conversions.h:63:28
	ldr	r7, [r5]
.Ltmp340:
	.loc	54 63 76 is_stmt 0      @ /usr/bin/../lib/gcc/arm-linux-gnueabihf/6.3.0/../../../../include/c++/6.3.0/ext/string_conversions.h:63:76
	str	r9, [r5]
.Ltmp341:
	.loc	54 68 27 is_stmt 1      @ /usr/bin/../lib/gcc/arm-linux-gnueabihf/6.3.0/../../../../include/c++/6.3.0/ext/string_conversions.h:68:27
	bl	strtof
	vmov.f32	s16, s0
.Ltmp342:
	@DEBUG_VALUE: __stoa<float, float, char>:__tmp <- %S16
	.loc	54 70 11                @ /usr/bin/../lib/gcc/arm-linux-gnueabihf/6.3.0/../../../../include/c++/6.3.0/ext/string_conversions.h:70:11
	ldr	r0, [r11, #-48]
.Ltmp343:
	@DEBUG_VALUE: __stoa<float, float, char>:__endptr <- %R0
	.loc	54 70 11 is_stmt 0      @ /usr/bin/../lib/gcc/arm-linux-gnueabihf/6.3.0/../../../../include/c++/6.3.0/ext/string_conversions.h:70:11
	cmp	r0, r6
	beq	.LBB3_119
.Ltmp344:
@ BB#73:                                @   in Loop: Header=BB3_70 Depth=2
	@DEBUG_VALUE: __stoa<float, float, char>:__endptr <- %R0
	@DEBUG_VALUE: __stoa<float, float, char>:__tmp <- %S16
	@DEBUG_VALUE: __stoa<float, float, char>:__str <- %R6
	.loc	54 72 17 is_stmt 1      @ /usr/bin/../lib/gcc/arm-linux-gnueabihf/6.3.0/../../../../include/c++/6.3.0/ext/string_conversions.h:72:17
	ldr	r0, [r5]
.Ltmp345:
	.loc	54 72 16 is_stmt 0      @ /usr/bin/../lib/gcc/arm-linux-gnueabihf/6.3.0/../../../../include/c++/6.3.0/ext/string_conversions.h:72:16
	cmp	r0, #0
	beq	.LBB3_75
.Ltmp346:
@ BB#74:                                @   in Loop: Header=BB3_70 Depth=2
	@DEBUG_VALUE: __stoa<float, float, char>:__tmp <- %S16
	@DEBUG_VALUE: __stoa<float, float, char>:__str <- %R6
	cmp	r0, #34
	bne	.LBB3_76
	b	.LBB3_117
.Ltmp347:
.LBB3_75:                               @   in Loop: Header=BB3_70 Depth=2
	@DEBUG_VALUE: __stoa<float, float, char>:__tmp <- %S16
	@DEBUG_VALUE: __stoa<float, float, char>:__str <- %R6
	.loc	54 64 75 is_stmt 1 discriminator 1 @ /usr/bin/../lib/gcc/arm-linux-gnueabihf/6.3.0/../../../../include/c++/6.3.0/ext/string_conversions.h:64:75
	str	r7, [r5]
.Ltmp348:
.LBB3_76:                               @   in Loop: Header=BB3_70 Depth=2
	@DEBUG_VALUE: __stoa<float, float, char>:__tmp <- %S16
	@DEBUG_VALUE: __stoa<float, float, char>:__str <- %R6
	.loc	53 98 6                 @ /usr/bin/../lib/gcc/arm-linux-gnueabihf/6.3.0/../../../../include/c++/6.3.0/bits/vector.tcc:98:6
	ldr	r0, [sp, #296]
.Ltmp349:
	@DEBUG_VALUE: construct<float, float>:__p <- %R0
	@DEBUG_VALUE: construct<float, float>:__p <- %R0
	.loc	53 94 47                @ /usr/bin/../lib/gcc/arm-linux-gnueabihf/6.3.0/../../../../include/c++/6.3.0/bits/vector.tcc:94:47
	ldr	r1, [sp, #300]
.Ltmp350:
	.loc	53 94 6 is_stmt 0       @ /usr/bin/../lib/gcc/arm-linux-gnueabihf/6.3.0/../../../../include/c++/6.3.0/bits/vector.tcc:94:6
	cmp	r0, r1
	bne	.LBB3_69
.Ltmp351:
@ BB#77:                                @   in Loop: Header=BB3_70 Depth=2
	@DEBUG_VALUE: construct<float, float>:__p <- %R0
	@DEBUG_VALUE: construct<float, float>:__p <- %R0
	@DEBUG_VALUE: __stoa<float, float, char>:__tmp <- %S16
	@DEBUG_VALUE: __stoa<float, float, char>:__str <- %R6
	@DEBUG_VALUE: _M_check_len:__n <- 1
	.loc	11 656 66 is_stmt 1     @ /usr/bin/../lib/gcc/arm-linux-gnueabihf/6.3.0/../../../../include/c++/6.3.0/bits/stl_vector.h:656:66
	ldr	r5, [sp, #292]
	mov	r8, #0
	.loc	11 656 50 is_stmt 0     @ /usr/bin/../lib/gcc/arm-linux-gnueabihf/6.3.0/../../../../include/c++/6.3.0/bits/stl_vector.h:656:50
	sub	r1, r0, r5
	asr	r2, r1, #2
.Ltmp352:
	.loc	11 1425 35 is_stmt 1    @ /usr/bin/../lib/gcc/arm-linux-gnueabihf/6.3.0/../../../../include/c++/6.3.0/bits/stl_vector.h:1425:35
	cmp	r8, r1, asr #2
	movweq	r2, #1
	add	r1, r2, r1, asr #2
	.loc	11 1426 25              @ /usr/bin/../lib/gcc/arm-linux-gnueabihf/6.3.0/../../../../include/c++/6.3.0/bits/stl_vector.h:1426:25
	cmp	r8, r1, lsr #30
	mov	r6, r1
.Ltmp353:
	mvnne	r6, #-1073741824
	cmp	r1, r2
	mvnlo	r6, #-1073741824
.Ltmp354:
	@DEBUG_VALUE: _M_allocate:__n <- %R6
	@DEBUG_VALUE: _M_emplace_back_aux<float>:__len <- %R6
	@DEBUG_VALUE: allocate:__n <- %R6
	@DEBUG_VALUE: allocate:__n <- %R6
	.loc	11 170 9                @ /usr/bin/../lib/gcc/arm-linux-gnueabihf/6.3.0/../../../../include/c++/6.3.0/bits/stl_vector.h:170:9
	cmp	r6, #0
.Ltmp355:
	@DEBUG_VALUE: _M_check_len:__len <- %R1
	beq	.LBB3_81
.Ltmp356:
@ BB#78:                                @   in Loop: Header=BB3_70 Depth=2
	@DEBUG_VALUE: _M_check_len:__len <- %R1
	@DEBUG_VALUE: allocate:__n <- %R6
	@DEBUG_VALUE: allocate:__n <- %R6
	@DEBUG_VALUE: _M_emplace_back_aux<float>:__len <- %R6
	@DEBUG_VALUE: _M_allocate:__n <- %R6
	@DEBUG_VALUE: construct<float, float>:__p <- %R0
	@DEBUG_VALUE: construct<float, float>:__p <- %R0
	@DEBUG_VALUE: __stoa<float, float, char>:__tmp <- %S16
	.loc	7 101 6                 @ /usr/bin/../lib/gcc/arm-linux-gnueabihf/6.3.0/../../../../include/c++/6.3.0/ext/new_allocator.h:101:6
	cmp	r6, #1073741824
	bhs	.LBB3_123
.Ltmp357:
@ BB#79:                                @ %_ZNSt16allocator_traitsISaIfEE8allocateERS0_j.exit.i.i62
                                        @   in Loop: Header=BB3_70 Depth=2
	@DEBUG_VALUE: _M_check_len:__len <- %R1
	@DEBUG_VALUE: allocate:__n <- %R6
	@DEBUG_VALUE: allocate:__n <- %R6
	@DEBUG_VALUE: _M_emplace_back_aux<float>:__len <- %R6
	@DEBUG_VALUE: _M_allocate:__n <- %R6
	@DEBUG_VALUE: construct<float, float>:__p <- %R0
	@DEBUG_VALUE: construct<float, float>:__p <- %R0
	@DEBUG_VALUE: __stoa<float, float, char>:__tmp <- %S16
	.loc	7 104 27                @ /usr/bin/../lib/gcc/arm-linux-gnueabihf/6.3.0/../../../../include/c++/6.3.0/ext/new_allocator.h:104:27
.Ltmp94:
	.loc	7 104 46 is_stmt 0      @ /usr/bin/../lib/gcc/arm-linux-gnueabihf/6.3.0/../../../../include/c++/6.3.0/ext/new_allocator.h:104:46
	lsl	r0, r6, #2
.Ltmp358:
	.loc	7 104 27                @ /usr/bin/../lib/gcc/arm-linux-gnueabihf/6.3.0/../../../../include/c++/6.3.0/ext/new_allocator.h:104:27
	bl	_Znwj
.Ltmp359:
	mov	r8, r0
.Ltmp95:
.Ltmp360:
@ BB#80:                                @ %.noexc65
                                        @   in Loop: Header=BB3_70 Depth=2
	@DEBUG_VALUE: allocate:__n <- %R6
	@DEBUG_VALUE: allocate:__n <- %R6
	@DEBUG_VALUE: _M_emplace_back_aux<float>:__len <- %R6
	@DEBUG_VALUE: _M_allocate:__n <- %R6
	@DEBUG_VALUE: __stoa<float, float, char>:__tmp <- %S16
	.loc	11 656 66 is_stmt 1     @ /usr/bin/../lib/gcc/arm-linux-gnueabihf/6.3.0/../../../../include/c++/6.3.0/bits/stl_vector.h:656:66
	ldr	r5, [sp, #292]
	.loc	11 656 40 is_stmt 0     @ /usr/bin/../lib/gcc/arm-linux-gnueabihf/6.3.0/../../../../include/c++/6.3.0/bits/stl_vector.h:656:40
	ldr	r0, [sp, #296]
.Ltmp361:
.LBB3_81:                               @   in Loop: Header=BB3_70 Depth=2
	@DEBUG_VALUE: allocate:__n <- %R6
	@DEBUG_VALUE: allocate:__n <- %R6
	@DEBUG_VALUE: _M_emplace_back_aux<float>:__len <- %R6
	@DEBUG_VALUE: _M_allocate:__n <- %R6
	@DEBUG_VALUE: __stoa<float, float, char>:__tmp <- %S16
	@DEBUG_VALUE: _M_emplace_back_aux<float>:__new_finish <- %R8
	.loc	11 656 50               @ /usr/bin/../lib/gcc/arm-linux-gnueabihf/6.3.0/../../../../include/c++/6.3.0/bits/stl_vector.h:656:50
	sub	r2, r0, r5
.Ltmp362:
	.loc	53 416 58 is_stmt 1     @ /usr/bin/../lib/gcc/arm-linux-gnueabihf/6.3.0/../../../../include/c++/6.3.0/bits/vector.tcc:416:58
	add	r7, r8, r2
.Ltmp363:
	@DEBUG_VALUE: construct<float, float>:__p <- %R7
	@DEBUG_VALUE: construct<float, float>:__p <- %R7
	@DEBUG_VALUE: _M_emplace_back_aux<float>:__new_finish <- %R7
	.loc	55 367 8                @ /usr/bin/../lib/gcc/arm-linux-gnueabihf/6.3.0/../../../../include/c++/6.3.0/bits/stl_algobase.h:367:8
	cmp	r9, r2, asr #2
.Ltmp364:
	.loc	7 120 4                 @ /usr/bin/../lib/gcc/arm-linux-gnueabihf/6.3.0/../../../../include/c++/6.3.0/ext/new_allocator.h:120:4
	vstr	s16, [r7]
.Ltmp365:
	@DEBUG_VALUE: __copy_move_a<true, float *, float *>:__simple <- 1
	@DEBUG_VALUE: uninitialized_copy<std::move_iterator<float *>, float *>:__assignable <- 1
	beq	.LBB3_83
.Ltmp366:
@ BB#82:                                @   in Loop: Header=BB3_70 Depth=2
	@DEBUG_VALUE: _M_emplace_back_aux<float>:__new_finish <- %R7
	@DEBUG_VALUE: construct<float, float>:__p <- %R7
	@DEBUG_VALUE: construct<float, float>:__p <- %R7
	@DEBUG_VALUE: allocate:__n <- %R6
	@DEBUG_VALUE: allocate:__n <- %R6
	@DEBUG_VALUE: _M_emplace_back_aux<float>:__len <- %R6
	@DEBUG_VALUE: _M_allocate:__n <- %R6
	@DEBUG_VALUE: __stoa<float, float, char>:__tmp <- %S16
	.loc	55 368 6                @ /usr/bin/../lib/gcc/arm-linux-gnueabihf/6.3.0/../../../../include/c++/6.3.0/bits/stl_algobase.h:368:6
	mov	r0, r8
	mov	r1, r5
	bl	memmove
.Ltmp367:
.LBB3_83:                               @   in Loop: Header=BB3_70 Depth=2
	@DEBUG_VALUE: _M_emplace_back_aux<float>:__new_finish <- %R7
	@DEBUG_VALUE: construct<float, float>:__p <- %R7
	@DEBUG_VALUE: construct<float, float>:__p <- %R7
	@DEBUG_VALUE: allocate:__n <- %R6
	@DEBUG_VALUE: allocate:__n <- %R6
	@DEBUG_VALUE: _M_emplace_back_aux<float>:__len <- %R6
	@DEBUG_VALUE: _M_allocate:__n <- %R6
	@DEBUG_VALUE: __stoa<float, float, char>:__tmp <- %S16
	.loc	53 425 6                @ /usr/bin/../lib/gcc/arm-linux-gnueabihf/6.3.0/../../../../include/c++/6.3.0/bits/vector.tcc:425:6
	add	r7, r7, #4
.Ltmp368:
	@DEBUG_VALUE: _M_emplace_back_aux<float>:__new_finish <- %R7
	.loc	11 177 6                @ /usr/bin/../lib/gcc/arm-linux-gnueabihf/6.3.0/../../../../include/c++/6.3.0/bits/stl_vector.h:177:6
	cmp	r5, #0
	beq	.LBB3_85
.Ltmp369:
@ BB#84:                                @   in Loop: Header=BB3_70 Depth=2
	@DEBUG_VALUE: _M_emplace_back_aux<float>:__new_finish <- %R7
	@DEBUG_VALUE: allocate:__n <- %R6
	@DEBUG_VALUE: allocate:__n <- %R6
	@DEBUG_VALUE: _M_emplace_back_aux<float>:__len <- %R6
	@DEBUG_VALUE: _M_allocate:__n <- %R6
	@DEBUG_VALUE: __stoa<float, float, char>:__tmp <- %S16
	.loc	7 110 9                 @ /usr/bin/../lib/gcc/arm-linux-gnueabihf/6.3.0/../../../../include/c++/6.3.0/ext/new_allocator.h:110:9
	mov	r0, r5
	bl	_ZdlPv
.Ltmp370:
.LBB3_85:                               @ %.noexc56
                                        @   in Loop: Header=BB3_70 Depth=2
	@DEBUG_VALUE: _M_emplace_back_aux<float>:__new_finish <- %R7
	@DEBUG_VALUE: allocate:__n <- %R6
	@DEBUG_VALUE: allocate:__n <- %R6
	@DEBUG_VALUE: _M_emplace_back_aux<float>:__len <- %R6
	@DEBUG_VALUE: _M_allocate:__n <- %R6
	@DEBUG_VALUE: __stoa<float, float, char>:__tmp <- %S16
	add	r4, sp, #60
	.loc	53 441 25               @ /usr/bin/../lib/gcc/arm-linux-gnueabihf/6.3.0/../../../../include/c++/6.3.0/bits/vector.tcc:441:25
	str	r8, [sp, #292]
	.loc	53 443 48               @ /usr/bin/../lib/gcc/arm-linux-gnueabihf/6.3.0/../../../../include/c++/6.3.0/bits/vector.tcc:443:48
	add	r0, r8, r6, lsl #2
	.loc	53 442 26               @ /usr/bin/../lib/gcc/arm-linux-gnueabihf/6.3.0/../../../../include/c++/6.3.0/bits/vector.tcc:442:26
	str	r7, [sp, #296]
	.loc	53 443 34               @ /usr/bin/../lib/gcc/arm-linux-gnueabihf/6.3.0/../../../../include/c++/6.3.0/bits/vector.tcc:443:34
	str	r0, [sp, #300]
	mov	r8, r4
	b	.LBB3_70
.Ltmp371:
.LBB3_86:                               @   in Loop: Header=BB3_60 Depth=1
	@DEBUG_VALUE: vector:this <- %R6
	@DEBUG_VALUE: construct<std::vector<float, std::allocator<float> >, const std::vector<float, std::allocator<float> > &>:__p <- %R6
	@DEBUG_VALUE: construct<std::vector<float, std::allocator<float> >, const std::vector<float, std::allocator<float> > &>:__p <- %R6
	.loc	5 31 31 discriminator 1 @ /root/Bela/projects/frek_domen_filtriranje/render.cpp:31:31
	movw	r1, :lower16:.L_MergedGlobals
	movt	r1, :upper16:.L_MergedGlobals
.Ltmp372:
	.loc	11 916 20               @ /usr/bin/../lib/gcc/arm-linux-gnueabihf/6.3.0/../../../../include/c++/6.3.0/bits/stl_vector.h:916:20
	ldr	r6, [r1, #76]
.Ltmp373:
	.loc	11 916 47 is_stmt 0     @ /usr/bin/../lib/gcc/arm-linux-gnueabihf/6.3.0/../../../../include/c++/6.3.0/bits/stl_vector.h:916:47
	ldr	r0, [r1, #80]
.Ltmp374:
	.loc	11 916 6                @ /usr/bin/../lib/gcc/arm-linux-gnueabihf/6.3.0/../../../../include/c++/6.3.0/bits/stl_vector.h:916:6
	cmp	r6, r0
	beq	.LBB3_93
@ BB#87:                                @   in Loop: Header=BB3_60 Depth=1
.Ltmp375:
	.loc	11 656 66 is_stmt 1     @ /usr/bin/../lib/gcc/arm-linux-gnueabihf/6.3.0/../../../../include/c++/6.3.0/bits/stl_vector.h:656:66
	ldr	r0, [sp, #292]
	mov	r5, #0
	.loc	11 656 40 is_stmt 0     @ /usr/bin/../lib/gcc/arm-linux-gnueabihf/6.3.0/../../../../include/c++/6.3.0/bits/stl_vector.h:656:40
	ldr	r1, [sp, #296]
.Ltmp376:
	.loc	11 91 25 is_stmt 1      @ /usr/bin/../lib/gcc/arm-linux-gnueabihf/6.3.0/../../../../include/c++/6.3.0/bits/stl_vector.h:91:25
	str	r5, [r6]
.Ltmp377:
	.loc	11 656 50               @ /usr/bin/../lib/gcc/arm-linux-gnueabihf/6.3.0/../../../../include/c++/6.3.0/bits/stl_vector.h:656:50
	sub	r0, r1, r0
.Ltmp378:
	.loc	11 91 37                @ /usr/bin/../lib/gcc/arm-linux-gnueabihf/6.3.0/../../../../include/c++/6.3.0/bits/stl_vector.h:91:37
	str	r5, [r6, #4]
	.loc	11 91 50 is_stmt 0      @ /usr/bin/../lib/gcc/arm-linux-gnueabihf/6.3.0/../../../../include/c++/6.3.0/bits/stl_vector.h:91:50
	str	r5, [r6, #8]
.Ltmp379:
	.loc	11 656 50 is_stmt 1     @ /usr/bin/../lib/gcc/arm-linux-gnueabihf/6.3.0/../../../../include/c++/6.3.0/bits/stl_vector.h:656:50
	asr	r7, r0, #2
.Ltmp380:
	@DEBUG_VALUE: _Vector_base:__n <- %R7
	@DEBUG_VALUE: _M_create_storage:__n <- %R7
	@DEBUG_VALUE: _M_allocate:__n <- %R7
	@DEBUG_VALUE: allocate:__n <- %R7
	@DEBUG_VALUE: allocate:__n <- %R7
	.loc	11 170 9                @ /usr/bin/../lib/gcc/arm-linux-gnueabihf/6.3.0/../../../../include/c++/6.3.0/bits/stl_vector.h:170:9
	cmp	r5, r0, asr #2
	beq	.LBB3_90
.Ltmp381:
@ BB#88:                                @   in Loop: Header=BB3_60 Depth=1
	@DEBUG_VALUE: allocate:__n <- %R7
	@DEBUG_VALUE: allocate:__n <- %R7
	@DEBUG_VALUE: _M_allocate:__n <- %R7
	@DEBUG_VALUE: _M_create_storage:__n <- %R7
	@DEBUG_VALUE: _Vector_base:__n <- %R7
	.loc	7 101 6                 @ /usr/bin/../lib/gcc/arm-linux-gnueabihf/6.3.0/../../../../include/c++/6.3.0/ext/new_allocator.h:101:6
	cmp	r7, #1073741824
	bhs	.LBB3_127
.Ltmp382:
@ BB#89:                                @ %_ZNSt16allocator_traitsISaIfEE8allocateERS0_j.exit.i.i.i.i.i.i.i68
                                        @   in Loop: Header=BB3_60 Depth=1
	@DEBUG_VALUE: allocate:__n <- %R7
	@DEBUG_VALUE: allocate:__n <- %R7
	@DEBUG_VALUE: _M_allocate:__n <- %R7
	@DEBUG_VALUE: _M_create_storage:__n <- %R7
	@DEBUG_VALUE: _Vector_base:__n <- %R7
	.loc	7 104 27                @ /usr/bin/../lib/gcc/arm-linux-gnueabihf/6.3.0/../../../../include/c++/6.3.0/ext/new_allocator.h:104:27
.Ltmp84:
	bl	_Znwj
	mov	r5, r0
.Ltmp85:
.Ltmp383:
.LBB3_90:                               @   in Loop: Header=BB3_60 Depth=1
	@DEBUG_VALUE: allocate:__n <- %R7
	@DEBUG_VALUE: allocate:__n <- %R7
	@DEBUG_VALUE: _M_allocate:__n <- %R7
	@DEBUG_VALUE: _M_create_storage:__n <- %R7
	@DEBUG_VALUE: _Vector_base:__n <- %R7
	@DEBUG_VALUE: __uninitialized_copy_a<__gnu_cxx::__normal_iterator<const float *, std::vector<float, std::allocator<float> > >, float *, float>:__result <- %R5
	.loc	11 185 25               @ /usr/bin/../lib/gcc/arm-linux-gnueabihf/6.3.0/../../../../include/c++/6.3.0/bits/stl_vector.h:185:25
	str	r5, [r6]
	.loc	11 187 59               @ /usr/bin/../lib/gcc/arm-linux-gnueabihf/6.3.0/../../../../include/c++/6.3.0/bits/stl_vector.h:187:59
	add	r0, r5, r7, lsl #2
	.loc	11 186 26               @ /usr/bin/../lib/gcc/arm-linux-gnueabihf/6.3.0/../../../../include/c++/6.3.0/bits/stl_vector.h:186:26
	str	r5, [r6, #4]
	.loc	11 187 34               @ /usr/bin/../lib/gcc/arm-linux-gnueabihf/6.3.0/../../../../include/c++/6.3.0/bits/stl_vector.h:187:34
	str	r0, [r6, #8]
.Ltmp384:
	.loc	11 558 45               @ /usr/bin/../lib/gcc/arm-linux-gnueabihf/6.3.0/../../../../include/c++/6.3.0/bits/stl_vector.h:558:45
	ldr	r1, [sp, #292]
.Ltmp385:
	.loc	11 576 45               @ /usr/bin/../lib/gcc/arm-linux-gnueabihf/6.3.0/../../../../include/c++/6.3.0/bits/stl_vector.h:576:45
	ldr	r0, [sp, #296]
.Ltmp386:
	@DEBUG_VALUE: __copy_move_a<false, const float *, float *>:__simple <- 1
	@DEBUG_VALUE: uninitialized_copy<__gnu_cxx::__normal_iterator<const float *, std::vector<float, std::allocator<float> > >, float *>:__assignable <- 1
	.loc	55 366 34               @ /usr/bin/../lib/gcc/arm-linux-gnueabihf/6.3.0/../../../../include/c++/6.3.0/bits/stl_algobase.h:366:34
	sub	r2, r0, r1
	asr	r7, r2, #2
.Ltmp387:
	@DEBUG_VALUE: __copy_m<float>:_Num <- %R7
	.loc	55 367 8                @ /usr/bin/../lib/gcc/arm-linux-gnueabihf/6.3.0/../../../../include/c++/6.3.0/bits/stl_algobase.h:367:8
	cmp	r9, r2, asr #2
	beq	.LBB3_92
.Ltmp388:
@ BB#91:                                @   in Loop: Header=BB3_60 Depth=1
	@DEBUG_VALUE: __copy_m<float>:_Num <- %R7
	@DEBUG_VALUE: __uninitialized_copy_a<__gnu_cxx::__normal_iterator<const float *, std::vector<float, std::allocator<float> > >, float *, float>:__result <- %R5
	.loc	55 368 6                @ /usr/bin/../lib/gcc/arm-linux-gnueabihf/6.3.0/../../../../include/c++/6.3.0/bits/stl_algobase.h:368:6
	mov	r0, r5
	bl	memmove
.Ltmp389:
.LBB3_92:                               @ %_ZNSt16allocator_traitsISaISt6vectorIfSaIfEEEE9constructIS2_JRKS2_EEEvRS3_PT_DpOT0_.exit.i69
                                        @   in Loop: Header=BB3_60 Depth=1
	@DEBUG_VALUE: __copy_m<float>:_Num <- %R7
	@DEBUG_VALUE: __uninitialized_copy_a<__gnu_cxx::__normal_iterator<const float *, std::vector<float, std::allocator<float> > >, float *, float>:__result <- %R5
	.loc	55 369 20               @ /usr/bin/../lib/gcc/arm-linux-gnueabihf/6.3.0/../../../../include/c++/6.3.0/bits/stl_algobase.h:369:20
	add	r0, r5, r7, lsl #2
.Ltmp390:
	.loc	11 323 33 discriminator 1 @ /usr/bin/../lib/gcc/arm-linux-gnueabihf/6.3.0/../../../../include/c++/6.3.0/bits/stl_vector.h:323:33
	str	r0, [r6, #4]
.Ltmp391:
	.loc	5 31 31 discriminator 1 @ /root/Bela/projects/frek_domen_filtriranje/render.cpp:31:31
	movw	r0, :lower16:.L_MergedGlobals
	movt	r0, :upper16:.L_MergedGlobals
	mov	r1, r0
.Ltmp392:
	.loc	11 920 6                @ /usr/bin/../lib/gcc/arm-linux-gnueabihf/6.3.0/../../../../include/c++/6.3.0/bits/stl_vector.h:920:6
	ldr	r0, [r1, #76]
	add	r0, r0, #12
	str	r0, [r1, #76]
	b	.LBB3_94
.Ltmp393:
.LBB3_93:                               @   in Loop: Header=BB3_60 Depth=1
	.loc	11 924 4                @ /usr/bin/../lib/gcc/arm-linux-gnueabihf/6.3.0/../../../../include/c++/6.3.0/bits/stl_vector.h:924:4
.Ltmp89:
	add	r0, r1, #72
.Ltmp394:
	@DEBUG_VALUE: push_back:this <- %R0
	add	r1, sp, #292
	bl	_ZNSt6vectorIS_IfSaIfEESaIS1_EE19_M_emplace_back_auxIJRKS1_EEEvDpOT_
.Ltmp395:
.Ltmp90:
.Ltmp396:
.LBB3_94:                               @ %_ZNSt6vectorIS_IfSaIfEESaIS1_EE9push_backERKS1_.exit73
                                        @   in Loop: Header=BB3_60 Depth=1
	.loc	19 136 28               @ /usr/bin/../lib/gcc/arm-linux-gnueabihf/6.3.0/../../../../include/c++/6.3.0/bits/basic_string.h:136:28
	ldr	r0, [sp, #60]
.Ltmp397:
	@DEBUG_VALUE: deallocate:__p <- %R0
	@DEBUG_VALUE: deallocate:__p <- %R0
	.loc	19 180 6                @ /usr/bin/../lib/gcc/arm-linux-gnueabihf/6.3.0/../../../../include/c++/6.3.0/bits/basic_string.h:180:6
	ldr	r1, [sp, #56]           @ 4-byte Reload
	cmp	r0, r1
	beq	.LBB3_96
.Ltmp398:
@ BB#95:                                @   in Loop: Header=BB3_60 Depth=1
	@DEBUG_VALUE: deallocate:__p <- %R0
	@DEBUG_VALUE: deallocate:__p <- %R0
	.loc	7 110 9                 @ /usr/bin/../lib/gcc/arm-linux-gnueabihf/6.3.0/../../../../include/c++/6.3.0/ext/new_allocator.h:110:9
	bl	_ZdlPv
.Ltmp399:
.LBB3_96:                               @ %_ZNSt7__cxx1112basic_stringIcSt11char_traitsIcESaIcEED2Ev.exit74
                                        @   in Loop: Header=BB3_60 Depth=1
	ldr	r0, [sp, #40]           @ 4-byte Reload
	add	r2, sp, #84
.Ltmp400:
	.loc	22 718 7                @ /usr/bin/../lib/gcc/arm-linux-gnueabihf/6.3.0/../../../../include/c++/6.3.0/sstream:718:7
	str	r0, [sp, #84]
	ldr	r1, [sp, #32]           @ 4-byte Reload
	ldr	r0, [r0, #-12]
.Ltmp401:
	@DEBUG_VALUE: ~basic_stringstream:this <- undef
	@DEBUG_VALUE: ~basic_stringstream:this <- undef
	@DEBUG_VALUE: ss <- undef
	str	r1, [r2, r0]
	ldr	r0, [sp, #36]           @ 4-byte Reload
	str	r0, [sp, #92]
.Ltmp402:
	.loc	51 272 25               @ /usr/bin/../lib/gcc/arm-linux-gnueabihf/6.3.0/../../../../include/c++/6.3.0/bits/sstream.tcc:272:25
	ldr	r0, [sp, #28]           @ 4-byte Reload
	str	r0, [sp, #96]
.Ltmp403:
	.loc	19 136 28               @ /usr/bin/../lib/gcc/arm-linux-gnueabihf/6.3.0/../../../../include/c++/6.3.0/bits/basic_string.h:136:28
	ldr	r0, [sp, #132]
.Ltmp404:
	@DEBUG_VALUE: deallocate:__p <- %R0
	@DEBUG_VALUE: deallocate:__p <- %R0
	.loc	19 180 6                @ /usr/bin/../lib/gcc/arm-linux-gnueabihf/6.3.0/../../../../include/c++/6.3.0/bits/basic_string.h:180:6
	ldr	r1, [sp, #16]           @ 4-byte Reload
	cmp	r0, r1
	beq	.LBB3_98
.Ltmp405:
@ BB#97:                                @   in Loop: Header=BB3_60 Depth=1
	@DEBUG_VALUE: deallocate:__p <- %R0
	@DEBUG_VALUE: deallocate:__p <- %R0
	.loc	7 110 9                 @ /usr/bin/../lib/gcc/arm-linux-gnueabihf/6.3.0/../../../../include/c++/6.3.0/ext/new_allocator.h:110:9
	bl	_ZdlPv
.Ltmp406:
.LBB3_98:                               @ %_ZNSt7__cxx1118basic_stringstreamIcSt11char_traitsIcESaIcEED1Ev.exit77
                                        @   in Loop: Header=BB3_60 Depth=1
	.loc	49 198 7                @ /usr/bin/../lib/gcc/arm-linux-gnueabihf/6.3.0/../../../../include/c++/6.3.0/streambuf:198:7
	ldr	r0, [sp, #44]           @ 4-byte Reload
	str	r0, [sp, #96]
.Ltmp407:
	.loc	49 198 9 is_stmt 0      @ /usr/bin/../lib/gcc/arm-linux-gnueabihf/6.3.0/../../../../include/c++/6.3.0/streambuf:198:9
	ldr	r0, [sp, #20]           @ 4-byte Reload
	bl	_ZNSt6localeD1Ev
	ldr	r0, [sp, #48]           @ 4-byte Reload
	add	r2, sp, #84
.Ltmp408:
	.loc	50 104 7 is_stmt 1      @ /usr/bin/../lib/gcc/arm-linux-gnueabihf/6.3.0/../../../../include/c++/6.3.0/istream:104:7
	str	r0, [sp, #84]
	ldr	r1, [sp, #52]           @ 4-byte Reload
	ldr	r0, [r0, #-12]
	str	r1, [r2, r0]
.Ltmp409:
	.loc	48 282 22               @ /usr/bin/../lib/gcc/arm-linux-gnueabihf/6.3.0/../../../../include/c++/6.3.0/bits/basic_ios.h:282:22
	ldr	r0, [sp, #24]           @ 4-byte Reload
.Ltmp410:
	.loc	50 104 19               @ /usr/bin/../lib/gcc/arm-linux-gnueabihf/6.3.0/../../../../include/c++/6.3.0/istream:104:19
	str	r9, [sp, #88]
.Ltmp411:
	.loc	48 282 22               @ /usr/bin/../lib/gcc/arm-linux-gnueabihf/6.3.0/../../../../include/c++/6.3.0/bits/basic_ios.h:282:22
	bl	_ZNSt8ios_baseD2Ev
.Ltmp412:
	.loc	11 160 37               @ /usr/bin/../lib/gcc/arm-linux-gnueabihf/6.3.0/../../../../include/c++/6.3.0/bits/stl_vector.h:160:37
	ldr	r0, [sp, #292]
.Ltmp413:
	@DEBUG_VALUE: _M_deallocate:__p <- %R0
	@DEBUG_VALUE: deallocate:__p <- %R0
	@DEBUG_VALUE: deallocate:__p <- %R0
	.loc	11 177 6                @ /usr/bin/../lib/gcc/arm-linux-gnueabihf/6.3.0/../../../../include/c++/6.3.0/bits/stl_vector.h:177:6
	cmp	r0, #0
	beq	.LBB3_100
.Ltmp414:
@ BB#99:                                @   in Loop: Header=BB3_60 Depth=1
	@DEBUG_VALUE: deallocate:__p <- %R0
	@DEBUG_VALUE: deallocate:__p <- %R0
	@DEBUG_VALUE: _M_deallocate:__p <- %R0
	.loc	7 110 9                 @ /usr/bin/../lib/gcc/arm-linux-gnueabihf/6.3.0/../../../../include/c++/6.3.0/ext/new_allocator.h:110:9
	bl	_ZdlPv
.Ltmp415:
.LBB3_100:                              @ %_ZNSt6vectorIfSaIfEED2Ev.exit78
                                        @   in Loop: Header=BB3_60 Depth=1
	.loc	19 5382 40              @ /usr/bin/../lib/gcc/arm-linux-gnueabihf/6.3.0/../../../../include/c++/6.3.0/bits/basic_string.h:5382:40
	ldr	r0, [sp, #304]
	add	r1, sp, #304
	ldr	r0, [r0, #-12]
	add	r0, r1, r0
	@DEBUG_VALUE: widen:__c <- 10
.Ltmp416:
	.loc	48 450 30               @ /usr/bin/../lib/gcc/arm-linux-gnueabihf/6.3.0/../../../../include/c++/6.3.0/bits/basic_ios.h:450:30
	ldr	r5, [r0, #124]
.Ltmp417:
	@DEBUG_VALUE: __check_facet<std::ctype<char> >:__f <- %R5
	.loc	48 49 11                @ /usr/bin/../lib/gcc/arm-linux-gnueabihf/6.3.0/../../../../include/c++/6.3.0/bits/basic_ios.h:49:11
	cmp	r5, #0
	bne	.LBB3_60
.Ltmp418:
.LBB3_101:                              @ %._crit_edge
	@DEBUG_VALUE: __check_facet<std::ctype<char> >:__f <- %R5
	.loc	48 50 2                 @ /usr/bin/../lib/gcc/arm-linux-gnueabihf/6.3.0/../../../../include/c++/6.3.0/bits/basic_ios.h:50:2
.Ltmp103:
	mov	lr, pc
	b	_ZSt16__throw_bad_castv
.Ltmp104:
.Ltmp419:
@ BB#102:                               @ %.noexc46
	@DEBUG_VALUE: __check_facet<std::ctype<char> >:__f <- %R5
.LBB3_103:
	.loc	5 60 20                 @ /root/Bela/projects/frek_domen_filtriranje/render.cpp:60:20
	movw	r0, :lower16:stderr
	mov	r4, #0
	movt	r0, :upper16:stderr
	ldr	r0, [r0]
	.loc	5 60 9 is_stmt 0        @ /root/Bela/projects/frek_domen_filtriranje/render.cpp:60:9
.Ltmp64:
	movw	r1, :lower16:.L.str.9
	ldr	r5, [sp, #12]           @ 4-byte Reload
	movt	r1, :upper16:.L.str.9
	bl	rt_fprintf
.Ltmp65:
	b	.LBB3_110
.Ltmp420:
.LBB3_104:
	@DEBUG_VALUE: widen:this <- %R5
	@DEBUG_VALUE: __check_facet<std::ctype<char> >:__f <- %R5
	.loc	47 635 18 is_stmt 1     @ /usr/bin/../lib/gcc/arm-linux-gnueabihf/6.3.0/../../../../include/c++/6.3.0/fstream:635:18
.Ltmp74:
	ldr	r0, [sp, #4]            @ 4-byte Reload
	bl	_ZNSt13basic_filebufIcSt11char_traitsIcEE5closeEv
.Ltmp75:
.Ltmp421:
@ BB#105:                               @ %.noexc84
	@DEBUG_VALUE: widen:this <- %R5
	@DEBUG_VALUE: __check_facet<std::ctype<char> >:__f <- %R5
	.loc	47 635 6 is_stmt 0      @ /usr/bin/../lib/gcc/arm-linux-gnueabihf/6.3.0/../../../../include/c++/6.3.0/fstream:635:6
	cmp	r0, #0
	bne	.LBB3_107
.Ltmp422:
@ BB#106:
	@DEBUG_VALUE: widen:this <- %R5
	@DEBUG_VALUE: __check_facet<std::ctype<char> >:__f <- %R5
	.loc	47 636 10 is_stmt 1     @ /usr/bin/../lib/gcc/arm-linux-gnueabihf/6.3.0/../../../../include/c++/6.3.0/fstream:636:10
	ldr	r0, [r11, #-328]
	sub	r1, r11, #328
	ldr	r0, [r0, #-12]
.Ltmp423:
	@DEBUG_VALUE: close:this <- undef
	add	r0, r1, r0
.Ltmp424:
	@DEBUG_VALUE: rdstate:this <- %R0
	@DEBUG_VALUE: setstate:__state <- 4
	@DEBUG_VALUE: setstate:this <- %R0
	.loc	48 138 16               @ /usr/bin/../lib/gcc/arm-linux-gnueabihf/6.3.0/../../../../include/c++/6.3.0/bits/basic_ios.h:138:16
	ldr	r1, [r0, #20]
.Ltmp425:
	@DEBUG_VALUE: operator|:__b <- 4
	@DEBUG_VALUE: operator|:__a <- %R1
	.loc	3 170 47                @ /usr/bin/../lib/gcc/arm-linux-gnueabihf/6.3.0/../../../../include/c++/6.3.0/bits/ios_base.h:170:47
	orr	r1, r1, #4
.Ltmp426:
	.loc	48 158 15 discriminator 2 @ /usr/bin/../lib/gcc/arm-linux-gnueabihf/6.3.0/../../../../include/c++/6.3.0/bits/basic_ios.h:158:15
.Ltmp76:
	bl	_ZNSt9basic_iosIcSt11char_traitsIcEE5clearESt12_Ios_Iostate
.Ltmp427:
.Ltmp77:
.Ltmp428:
.LBB3_107:                              @ %_ZNSt14basic_ifstreamIcSt11char_traitsIcEE5closeEv.exit86
	@DEBUG_VALUE: widen:this <- %R5
	@DEBUG_VALUE: __check_facet<std::ctype<char> >:__f <- %R5
	.loc	19 136 28               @ /usr/bin/../lib/gcc/arm-linux-gnueabihf/6.3.0/../../../../include/c++/6.3.0/bits/basic_string.h:136:28
	ldr	r0, [r11, #-560]
.Ltmp429:
	@DEBUG_VALUE: deallocate:__p <- %R0
	@DEBUG_VALUE: deallocate:__p <- %R0
	ldr	r5, [sp, #12]           @ 4-byte Reload
.Ltmp430:
	.loc	19 180 6                @ /usr/bin/../lib/gcc/arm-linux-gnueabihf/6.3.0/../../../../include/c++/6.3.0/bits/basic_string.h:180:6
	ldr	r1, [sp, #8]            @ 4-byte Reload
	cmp	r0, r1
	beq	.LBB3_109
.Ltmp431:
@ BB#108:
	@DEBUG_VALUE: deallocate:__p <- %R0
	@DEBUG_VALUE: deallocate:__p <- %R0
	.loc	7 110 9                 @ /usr/bin/../lib/gcc/arm-linux-gnueabihf/6.3.0/../../../../include/c++/6.3.0/ext/new_allocator.h:110:9
	bl	_ZdlPv
.Ltmp432:
.LBB3_109:                              @ %_ZNSt7__cxx1112basic_stringIcSt11char_traitsIcESaIcEED2Ev.exit87
	mov	r4, #1
.LBB3_110:
	add	r6, sp, #304
.Ltmp433:
	@DEBUG_VALUE: ~basic_ifstream:this <- %R6
	@DEBUG_VALUE: setup:file1 <- [%R6+0]
	.loc	47 534 7                @ /usr/bin/../lib/gcc/arm-linux-gnueabihf/6.3.0/../../../../include/c++/6.3.0/fstream:534:7
	movw	r1, :lower16:_ZTTSt14basic_ifstreamIcSt11char_traitsIcEE
	movt	r1, :upper16:_ZTTSt14basic_ifstreamIcSt11char_traitsIcEE
.Ltmp434:
	@DEBUG_VALUE: ~basic_ifstream:this <- undef
	@DEBUG_VALUE: setup:file1 <- undef
	mov	r0, r6
	bl	_ZNSt14basic_ifstreamIcSt11char_traitsIcEED2Ev
.Ltmp435:
	.loc	48 282 22               @ /usr/bin/../lib/gcc/arm-linux-gnueabihf/6.3.0/../../../../include/c++/6.3.0/bits/basic_ios.h:282:22
	add	r0, r6, #144
	bl	_ZNSt8ios_baseD2Ev
.Ltmp436:
	.loc	19 136 28               @ /usr/bin/../lib/gcc/arm-linux-gnueabihf/6.3.0/../../../../include/c++/6.3.0/bits/basic_string.h:136:28
	ldr	r0, [r11, #-352]
.Ltmp437:
	@DEBUG_VALUE: deallocate:__p <- %R0
	@DEBUG_VALUE: deallocate:__p <- %R0
	.loc	19 180 6                @ /usr/bin/../lib/gcc/arm-linux-gnueabihf/6.3.0/../../../../include/c++/6.3.0/bits/basic_string.h:180:6
	cmp	r0, r5
	beq	.LBB3_112
.Ltmp438:
@ BB#111:
	@DEBUG_VALUE: deallocate:__p <- %R0
	@DEBUG_VALUE: deallocate:__p <- %R0
	.loc	7 110 9                 @ /usr/bin/../lib/gcc/arm-linux-gnueabihf/6.3.0/../../../../include/c++/6.3.0/ext/new_allocator.h:110:9
	bl	_ZdlPv
.Ltmp439:
.LBB3_112:
	sub	r5, r11, #328
.Ltmp440:
	@DEBUG_VALUE: ~basic_ifstream:this <- %R5
	@DEBUG_VALUE: setup:file <- [%R5+0]
	.loc	47 534 7                @ /usr/bin/../lib/gcc/arm-linux-gnueabihf/6.3.0/../../../../include/c++/6.3.0/fstream:534:7
	movw	r1, :lower16:_ZTTSt14basic_ifstreamIcSt11char_traitsIcEE
	movt	r1, :upper16:_ZTTSt14basic_ifstreamIcSt11char_traitsIcEE
.Ltmp441:
	@DEBUG_VALUE: ~basic_ifstream:this <- undef
	@DEBUG_VALUE: setup:file <- undef
	mov	r0, r5
	bl	_ZNSt14basic_ifstreamIcSt11char_traitsIcEED2Ev
.Ltmp442:
	.loc	48 282 22               @ /usr/bin/../lib/gcc/arm-linux-gnueabihf/6.3.0/../../../../include/c++/6.3.0/bits/basic_ios.h:282:22
	add	r0, r5, #144
	bl	_ZNSt8ios_baseD2Ev
.Ltmp443:
	.loc	5 79 1 discriminator 14 @ /root/Bela/projects/frek_domen_filtriranje/render.cpp:79:1
	mov	r0, r4
	sub	sp, r11, #40
	vpop	{d8}
	add	sp, sp, #4
	pop	{r4, r5, r6, r7, r8, r9, r10, r11, pc}
.LBB3_113:
.Ltmp444:
	@DEBUG_VALUE: __stoa<float, float, char>:__tmp <- %S16
	@DEBUG_VALUE: __stoa<float, float, char>:__str <- %R6
	.loc	54 76 2                 @ /usr/bin/../lib/gcc/arm-linux-gnueabihf/6.3.0/../../../../include/c++/6.3.0/ext/string_conversions.h:76:2
.Ltmp120:
	movw	r0, :lower16:.L.str.11
	movt	r0, :upper16:.L.str.11
.Ltmp445:
	@DEBUG_VALUE: __stoa<float, float, char>:__name <- %R0
	mov	lr, pc
	b	_ZSt20__throw_out_of_rangePKc
.Ltmp446:
.Ltmp121:
.Ltmp447:
@ BB#114:
	@DEBUG_VALUE: __stoa<float, float, char>:__tmp <- %S16
	@DEBUG_VALUE: __stoa<float, float, char>:__str <- %R6
.LBB3_115:
	@DEBUG_VALUE: __stoa<float, float, char>:__endptr <- %R0
	@DEBUG_VALUE: __stoa<float, float, char>:__tmp <- %S16
	@DEBUG_VALUE: __stoa<float, float, char>:__str <- %R6
	.loc	54 71 2                 @ /usr/bin/../lib/gcc/arm-linux-gnueabihf/6.3.0/../../../../include/c++/6.3.0/ext/string_conversions.h:71:2
.Ltmp128:
	movw	r0, :lower16:.L.str.11
.Ltmp448:
	movt	r0, :upper16:.L.str.11
	mov	lr, pc
	b	_ZSt24__throw_invalid_argumentPKc
.Ltmp129:
.Ltmp449:
@ BB#116:
	@DEBUG_VALUE: __stoa<float, float, char>:__tmp <- %S16
	@DEBUG_VALUE: __stoa<float, float, char>:__str <- %R6
.LBB3_117:
	@DEBUG_VALUE: __stoa<float, float, char>:__tmp <- %S16
	@DEBUG_VALUE: __stoa<float, float, char>:__str <- %R6
	.loc	54 76 2                 @ /usr/bin/../lib/gcc/arm-linux-gnueabihf/6.3.0/../../../../include/c++/6.3.0/ext/string_conversions.h:76:2
.Ltmp92:
	movw	r0, :lower16:.L.str.11
	movt	r0, :upper16:.L.str.11
.Ltmp450:
	@DEBUG_VALUE: __stoa<float, float, char>:__name <- %R0
	mov	lr, pc
	b	_ZSt20__throw_out_of_rangePKc
.Ltmp451:
.Ltmp93:
.Ltmp452:
@ BB#118:
	@DEBUG_VALUE: __stoa<float, float, char>:__tmp <- %S16
	@DEBUG_VALUE: __stoa<float, float, char>:__str <- %R6
.LBB3_119:
	@DEBUG_VALUE: __stoa<float, float, char>:__endptr <- %R0
	@DEBUG_VALUE: __stoa<float, float, char>:__tmp <- %S16
	@DEBUG_VALUE: __stoa<float, float, char>:__str <- %R6
	.loc	54 71 2                 @ /usr/bin/../lib/gcc/arm-linux-gnueabihf/6.3.0/../../../../include/c++/6.3.0/ext/string_conversions.h:71:2
.Ltmp100:
	movw	r0, :lower16:.L.str.11
.Ltmp453:
	movt	r0, :upper16:.L.str.11
	mov	lr, pc
	b	_ZSt24__throw_invalid_argumentPKc
.Ltmp101:
.Ltmp454:
@ BB#120:
	@DEBUG_VALUE: __stoa<float, float, char>:__tmp <- %S16
	@DEBUG_VALUE: __stoa<float, float, char>:__str <- %R6
.LBB3_121:
	@DEBUG_VALUE: _M_check_len:__len <- %R1
	@DEBUG_VALUE: allocate:__n <- %R6
	@DEBUG_VALUE: allocate:__n <- %R6
	@DEBUG_VALUE: _M_emplace_back_aux<float>:__len <- %R6
	@DEBUG_VALUE: _M_allocate:__n <- %R6
	@DEBUG_VALUE: construct<float, float>:__p <- %R0
	@DEBUG_VALUE: construct<float, float>:__p <- %R0
	@DEBUG_VALUE: __stoa<float, float, char>:__tmp <- %S16
	.loc	7 102 4                 @ /usr/bin/../lib/gcc/arm-linux-gnueabihf/6.3.0/../../../../include/c++/6.3.0/ext/new_allocator.h:102:4
.Ltmp125:
	mov	lr, pc
	b	_ZSt17__throw_bad_allocv
.Ltmp455:
.Ltmp126:
.Ltmp456:
@ BB#122:                               @ %.noexc30
	@DEBUG_VALUE: allocate:__n <- %R6
	@DEBUG_VALUE: allocate:__n <- %R6
	@DEBUG_VALUE: _M_emplace_back_aux<float>:__len <- %R6
	@DEBUG_VALUE: _M_allocate:__n <- %R6
	@DEBUG_VALUE: __stoa<float, float, char>:__tmp <- %S16
.LBB3_123:
	@DEBUG_VALUE: _M_check_len:__len <- %R1
	@DEBUG_VALUE: allocate:__n <- %R6
	@DEBUG_VALUE: allocate:__n <- %R6
	@DEBUG_VALUE: _M_emplace_back_aux<float>:__len <- %R6
	@DEBUG_VALUE: _M_allocate:__n <- %R6
	@DEBUG_VALUE: construct<float, float>:__p <- %R0
	@DEBUG_VALUE: construct<float, float>:__p <- %R0
	@DEBUG_VALUE: __stoa<float, float, char>:__tmp <- %S16
	.loc	7 102 4 is_stmt 0       @ /usr/bin/../lib/gcc/arm-linux-gnueabihf/6.3.0/../../../../include/c++/6.3.0/ext/new_allocator.h:102:4
.Ltmp97:
	mov	lr, pc
	b	_ZSt17__throw_bad_allocv
.Ltmp457:
.Ltmp98:
.Ltmp458:
@ BB#124:                               @ %.noexc64
	@DEBUG_VALUE: allocate:__n <- %R6
	@DEBUG_VALUE: allocate:__n <- %R6
	@DEBUG_VALUE: _M_emplace_back_aux<float>:__len <- %R6
	@DEBUG_VALUE: _M_allocate:__n <- %R6
	@DEBUG_VALUE: __stoa<float, float, char>:__tmp <- %S16
.LBB3_125:                              @ %.noexc.i.i.i.i.i
	@DEBUG_VALUE: allocate:__n <- %R7
	@DEBUG_VALUE: allocate:__n <- %R7
	@DEBUG_VALUE: _M_allocate:__n <- %R7
	@DEBUG_VALUE: _M_create_storage:__n <- %R7
	@DEBUG_VALUE: _Vector_base:__n <- %R7
	.loc	7 102 4                 @ /usr/bin/../lib/gcc/arm-linux-gnueabihf/6.3.0/../../../../include/c++/6.3.0/ext/new_allocator.h:102:4
.Ltmp114:
	mov	lr, pc
	b	_ZSt17__throw_bad_allocv
.Ltmp115:
.Ltmp459:
@ BB#126:                               @ %.noexc32
	@DEBUG_VALUE: allocate:__n <- %R7
	@DEBUG_VALUE: allocate:__n <- %R7
	@DEBUG_VALUE: _M_allocate:__n <- %R7
	@DEBUG_VALUE: _M_create_storage:__n <- %R7
	@DEBUG_VALUE: _Vector_base:__n <- %R7
.LBB3_127:                              @ %.noexc.i.i.i.i.i67
	@DEBUG_VALUE: allocate:__n <- %R7
	@DEBUG_VALUE: allocate:__n <- %R7
	@DEBUG_VALUE: _M_allocate:__n <- %R7
	@DEBUG_VALUE: _M_create_storage:__n <- %R7
	@DEBUG_VALUE: _Vector_base:__n <- %R7
	.loc	7 102 4                 @ /usr/bin/../lib/gcc/arm-linux-gnueabihf/6.3.0/../../../../include/c++/6.3.0/ext/new_allocator.h:102:4
.Ltmp86:
	mov	lr, pc
	b	_ZSt17__throw_bad_allocv
.Ltmp87:
.Ltmp460:
@ BB#128:                               @ %.noexc70
	@DEBUG_VALUE: allocate:__n <- %R7
	@DEBUG_VALUE: allocate:__n <- %R7
	@DEBUG_VALUE: _M_allocate:__n <- %R7
	@DEBUG_VALUE: _M_create_storage:__n <- %R7
	@DEBUG_VALUE: _Vector_base:__n <- %R7
.LBB3_129:                              @ %.loopexit.split-lp.loopexit.split-lp
	@DEBUG_VALUE: allocate:__n <- %R7
	@DEBUG_VALUE: allocate:__n <- %R7
	@DEBUG_VALUE: _M_allocate:__n <- %R7
	@DEBUG_VALUE: _M_create_storage:__n <- %R7
	@DEBUG_VALUE: _Vector_base:__n <- %R7
.Ltmp88:
	b	.LBB3_151
.Ltmp461:
.LBB3_130:                              @ %.loopexit.split-lp113.loopexit.split-lp
	@DEBUG_VALUE: allocate:__n <- %R7
	@DEBUG_VALUE: allocate:__n <- %R7
	@DEBUG_VALUE: _M_allocate:__n <- %R7
	@DEBUG_VALUE: _M_create_storage:__n <- %R7
	@DEBUG_VALUE: _Vector_base:__n <- %R7
.Ltmp116:
	b	.LBB3_163
.Ltmp462:
.LBB3_131:                              @ %.loopexit.split-lp100
	@DEBUG_VALUE: allocate:__n <- %R6
	@DEBUG_VALUE: allocate:__n <- %R6
	@DEBUG_VALUE: _M_emplace_back_aux<float>:__len <- %R6
	@DEBUG_VALUE: _M_allocate:__n <- %R6
	@DEBUG_VALUE: __stoa<float, float, char>:__tmp <- %S16
.Ltmp99:
	b	.LBB3_151
.Ltmp463:
.LBB3_132:                              @ %.loopexit.split-lp117
	@DEBUG_VALUE: allocate:__n <- %R6
	@DEBUG_VALUE: allocate:__n <- %R6
	@DEBUG_VALUE: _M_emplace_back_aux<float>:__len <- %R6
	@DEBUG_VALUE: _M_allocate:__n <- %R6
	@DEBUG_VALUE: __stoa<float, float, char>:__tmp <- %S16
.Ltmp127:
	b	.LBB3_163
.Ltmp464:
.LBB3_133:
	@DEBUG_VALUE: __stoa<float, float, char>:__tmp <- %S16
	@DEBUG_VALUE: __stoa<float, float, char>:__str <- %R6
.Ltmp102:
	mov	r8, r0
.Ltmp465:
	.loc	54 64 24 is_stmt 1      @ /usr/bin/../lib/gcc/arm-linux-gnueabihf/6.3.0/../../../../include/c++/6.3.0/ext/string_conversions.h:64:24
	ldr	r0, [r5]
.Ltmp466:
	.loc	54 64 23 is_stmt 0      @ /usr/bin/../lib/gcc/arm-linux-gnueabihf/6.3.0/../../../../include/c++/6.3.0/ext/string_conversions.h:64:23
	cmp	r0, #0
.Ltmp467:
	.loc	54 64 75 discriminator 1 @ /usr/bin/../lib/gcc/arm-linux-gnueabihf/6.3.0/../../../../include/c++/6.3.0/ext/string_conversions.h:64:75
	streq	r7, [r5]
	b	.LBB3_152
.Ltmp468:
.LBB3_134:
	@DEBUG_VALUE: __stoa<float, float, char>:__tmp <- %S16
	@DEBUG_VALUE: __stoa<float, float, char>:__str <- %R6
.Ltmp130:
	mov	r8, r0
.Ltmp469:
	.loc	54 64 24                @ /usr/bin/../lib/gcc/arm-linux-gnueabihf/6.3.0/../../../../include/c++/6.3.0/ext/string_conversions.h:64:24
	ldr	r0, [r5]
.Ltmp470:
	.loc	54 64 23                @ /usr/bin/../lib/gcc/arm-linux-gnueabihf/6.3.0/../../../../include/c++/6.3.0/ext/string_conversions.h:64:23
	cmp	r0, #0
.Ltmp471:
	.loc	54 64 75 discriminator 1 @ /usr/bin/../lib/gcc/arm-linux-gnueabihf/6.3.0/../../../../include/c++/6.3.0/ext/string_conversions.h:64:75
	streq	r7, [r5]
	b	.LBB3_164
.Ltmp472:
.LBB3_135:
.Ltmp66:
	mov	r8, r0
	b	.LBB3_161
.LBB3_136:                              @ %.loopexit.split-lp105
.Ltmp473:
	@DEBUG_VALUE: __check_facet<std::ctype<char> >:__f <- %R5
.Ltmp105:
	b	.LBB3_143
.Ltmp474:
.LBB3_137:
.Ltmp50:
	mov	r8, r0
	b	.LBB3_173
.LBB3_138:                              @ %.loopexit.split-lp122
.Ltmp133:
	b	.LBB3_147
.LBB3_139:                              @ %.loopexit.split-lp.loopexit
.Ltmp91:
	b	.LBB3_151
.LBB3_140:
.Ltmp475:
	@DEBUG_VALUE: widen:this <- %R5
	@DEBUG_VALUE: __check_facet<std::ctype<char> >:__f <- %R5
.Ltmp80:
	mov	r8, r0
	ldr	r5, [sp, #12]           @ 4-byte Reload
.Ltmp476:
	b	.LBB3_157
.LBB3_141:                              @ %.loopexit.split-lp113.loopexit
.Ltmp119:
	b	.LBB3_163
.LBB3_142:                              @ %.loopexit104
.Ltmp477:
	@DEBUG_VALUE: widen:this <- %R5
	@DEBUG_VALUE: __check_facet<std::ctype<char> >:__f <- %R5
.Ltmp73:
.Ltmp478:
.LBB3_143:
	@DEBUG_VALUE: __check_facet<std::ctype<char> >:__f <- %R5
	mov	r8, r0
	ldr	r5, [sp, #12]           @ 4-byte Reload
.Ltmp479:
	b	.LBB3_159
.LBB3_144:
.Ltmp480:
	@DEBUG_VALUE: widen:this <- %R5
	@DEBUG_VALUE: __check_facet<std::ctype<char> >:__f <- %R5
.Ltmp108:
	mov	r8, r0
	b	.LBB3_169
.Ltmp481:
.LBB3_145:
	@DEBUG_VALUE: Fft:this <- %R5
.Ltmp47:
	mov	r8, r0
.Ltmp482:
	.loc	5 32 18 is_stmt 1 discriminator 2 @ /root/Bela/projects/frek_domen_filtriranje/render.cpp:32:18
	mov	r0, r5
	bl	_ZdlPv
	mov	r0, r8
	mov	lr, pc
	b	_Unwind_Resume
.Ltmp483:
.LBB3_146:                              @ %.loopexit121
	@DEBUG_VALUE: widen:this <- %R5
	@DEBUG_VALUE: __check_facet<std::ctype<char> >:__f <- %R5
.Ltmp57:
.Ltmp484:
.LBB3_147:
	mov	r8, r0
	ldr	r5, [sp, #12]           @ 4-byte Reload
	b	.LBB3_171
.LBB3_148:                              @ %.loopexit99
.Ltmp485:
	@DEBUG_VALUE: allocate:__n <- %R6
	@DEBUG_VALUE: allocate:__n <- %R6
	@DEBUG_VALUE: _M_emplace_back_aux<float>:__len <- %R6
	@DEBUG_VALUE: _M_allocate:__n <- %R6
	@DEBUG_VALUE: __stoa<float, float, char>:__tmp <- %S16
.Ltmp96:
	b	.LBB3_151
.Ltmp486:
.LBB3_149:                              @ %.loopexit116
	@DEBUG_VALUE: allocate:__n <- %R6
	@DEBUG_VALUE: allocate:__n <- %R6
	@DEBUG_VALUE: _M_emplace_back_aux<float>:__len <- %R6
	@DEBUG_VALUE: _M_allocate:__n <- %R6
	@DEBUG_VALUE: __stoa<float, float, char>:__tmp <- %S16
.Ltmp124:
	b	.LBB3_163
.Ltmp487:
.LBB3_150:                              @ %.loopexit
.Ltmp83:
.LBB3_151:                              @ %.body53
	mov	r8, r0
.LBB3_152:                              @ %.body53
.Ltmp488:
	.loc	19 136 28               @ /usr/bin/../lib/gcc/arm-linux-gnueabihf/6.3.0/../../../../include/c++/6.3.0/bits/basic_string.h:136:28
	ldr	r0, [sp, #60]
.Ltmp489:
	@DEBUG_VALUE: deallocate:__p <- %R0
	@DEBUG_VALUE: deallocate:__p <- %R0
	.loc	19 180 6                @ /usr/bin/../lib/gcc/arm-linux-gnueabihf/6.3.0/../../../../include/c++/6.3.0/bits/basic_string.h:180:6
	ldr	r1, [sp, #56]           @ 4-byte Reload
	cmp	r0, r1
	beq	.LBB3_154
.Ltmp490:
@ BB#153:
	@DEBUG_VALUE: deallocate:__p <- %R0
	@DEBUG_VALUE: deallocate:__p <- %R0
	.loc	7 110 9                 @ /usr/bin/../lib/gcc/arm-linux-gnueabihf/6.3.0/../../../../include/c++/6.3.0/ext/new_allocator.h:110:9
	bl	_ZdlPv
.Ltmp491:
.LBB3_154:                              @ %_ZNSt7__cxx1112basic_stringIcSt11char_traitsIcESaIcEED2Ev.exit79
	ldr	r0, [sp, #40]           @ 4-byte Reload
	add	r2, sp, #84
.Ltmp492:
	.loc	22 718 7                @ /usr/bin/../lib/gcc/arm-linux-gnueabihf/6.3.0/../../../../include/c++/6.3.0/sstream:718:7
	str	r0, [sp, #84]
	ldr	r1, [sp, #32]           @ 4-byte Reload
	ldr	r0, [r0, #-12]
.Ltmp493:
	@DEBUG_VALUE: ~basic_stringstream:this <- undef
	@DEBUG_VALUE: ~basic_stringstream:this <- undef
	@DEBUG_VALUE: ss <- undef
	ldr	r5, [sp, #12]           @ 4-byte Reload
	str	r1, [r2, r0]
	ldr	r0, [sp, #36]           @ 4-byte Reload
	str	r0, [sp, #92]
.Ltmp494:
	.loc	51 272 25               @ /usr/bin/../lib/gcc/arm-linux-gnueabihf/6.3.0/../../../../include/c++/6.3.0/bits/sstream.tcc:272:25
	ldr	r0, [sp, #28]           @ 4-byte Reload
	str	r0, [sp, #96]
.Ltmp495:
	.loc	19 136 28               @ /usr/bin/../lib/gcc/arm-linux-gnueabihf/6.3.0/../../../../include/c++/6.3.0/bits/basic_string.h:136:28
	ldr	r0, [sp, #132]
.Ltmp496:
	@DEBUG_VALUE: deallocate:__p <- %R0
	@DEBUG_VALUE: deallocate:__p <- %R0
	.loc	19 180 6                @ /usr/bin/../lib/gcc/arm-linux-gnueabihf/6.3.0/../../../../include/c++/6.3.0/bits/basic_string.h:180:6
	ldr	r1, [sp, #16]           @ 4-byte Reload
	cmp	r0, r1
	beq	.LBB3_156
.Ltmp497:
@ BB#155:
	@DEBUG_VALUE: deallocate:__p <- %R0
	@DEBUG_VALUE: deallocate:__p <- %R0
	.loc	7 110 9                 @ /usr/bin/../lib/gcc/arm-linux-gnueabihf/6.3.0/../../../../include/c++/6.3.0/ext/new_allocator.h:110:9
	bl	_ZdlPv
.Ltmp498:
.LBB3_156:                              @ %_ZNSt7__cxx1118basic_stringstreamIcSt11char_traitsIcESaIcEED1Ev.exit82
	.loc	49 198 7                @ /usr/bin/../lib/gcc/arm-linux-gnueabihf/6.3.0/../../../../include/c++/6.3.0/streambuf:198:7
	ldr	r0, [sp, #44]           @ 4-byte Reload
	str	r0, [sp, #96]
.Ltmp499:
	.loc	49 198 9 is_stmt 0      @ /usr/bin/../lib/gcc/arm-linux-gnueabihf/6.3.0/../../../../include/c++/6.3.0/streambuf:198:9
	ldr	r0, [sp, #20]           @ 4-byte Reload
	bl	_ZNSt6localeD1Ev
	ldr	r0, [sp, #48]           @ 4-byte Reload
	add	r2, sp, #84
.Ltmp500:
	.loc	50 104 7 is_stmt 1      @ /usr/bin/../lib/gcc/arm-linux-gnueabihf/6.3.0/../../../../include/c++/6.3.0/istream:104:7
	str	r0, [sp, #84]
	ldr	r1, [sp, #52]           @ 4-byte Reload
	ldr	r0, [r0, #-12]
	str	r1, [r2, r0]
	mov	r0, #0
.Ltmp501:
	.loc	50 104 19 is_stmt 0     @ /usr/bin/../lib/gcc/arm-linux-gnueabihf/6.3.0/../../../../include/c++/6.3.0/istream:104:19
	str	r0, [sp, #88]
.Ltmp502:
	.loc	48 282 22 is_stmt 1     @ /usr/bin/../lib/gcc/arm-linux-gnueabihf/6.3.0/../../../../include/c++/6.3.0/bits/basic_ios.h:282:22
	ldr	r0, [sp, #24]           @ 4-byte Reload
	bl	_ZNSt8ios_baseD2Ev
.Ltmp503:
.LBB3_157:
	.loc	11 160 37               @ /usr/bin/../lib/gcc/arm-linux-gnueabihf/6.3.0/../../../../include/c++/6.3.0/bits/stl_vector.h:160:37
	ldr	r0, [sp, #292]
.Ltmp504:
	@DEBUG_VALUE: _M_deallocate:__p <- %R0
	@DEBUG_VALUE: deallocate:__p <- %R0
	@DEBUG_VALUE: deallocate:__p <- %R0
	.loc	11 177 6                @ /usr/bin/../lib/gcc/arm-linux-gnueabihf/6.3.0/../../../../include/c++/6.3.0/bits/stl_vector.h:177:6
	cmp	r0, #0
	beq	.LBB3_159
.Ltmp505:
@ BB#158:
	@DEBUG_VALUE: deallocate:__p <- %R0
	@DEBUG_VALUE: deallocate:__p <- %R0
	@DEBUG_VALUE: _M_deallocate:__p <- %R0
	.loc	7 110 9                 @ /usr/bin/../lib/gcc/arm-linux-gnueabihf/6.3.0/../../../../include/c++/6.3.0/ext/new_allocator.h:110:9
	bl	_ZdlPv
.Ltmp506:
.LBB3_159:                              @ %_ZNSt6vectorIfSaIfEED2Ev.exit83
	.loc	19 136 28               @ /usr/bin/../lib/gcc/arm-linux-gnueabihf/6.3.0/../../../../include/c++/6.3.0/bits/basic_string.h:136:28
	ldr	r0, [r11, #-560]
.Ltmp507:
	@DEBUG_VALUE: deallocate:__p <- %R0
	@DEBUG_VALUE: deallocate:__p <- %R0
	ldr	r1, [sp, #8]            @ 4-byte Reload
.Ltmp508:
	.loc	19 180 6                @ /usr/bin/../lib/gcc/arm-linux-gnueabihf/6.3.0/../../../../include/c++/6.3.0/bits/basic_string.h:180:6
	cmp	r0, r1
	beq	.LBB3_161
.Ltmp509:
@ BB#160:
	@DEBUG_VALUE: deallocate:__p <- %R0
	@DEBUG_VALUE: deallocate:__p <- %R0
	.loc	7 110 9                 @ /usr/bin/../lib/gcc/arm-linux-gnueabihf/6.3.0/../../../../include/c++/6.3.0/ext/new_allocator.h:110:9
	bl	_ZdlPv
.Ltmp510:
.LBB3_161:
	add	r6, sp, #304
.Ltmp511:
	@DEBUG_VALUE: ~basic_ifstream:this <- %R6
	@DEBUG_VALUE: setup:file1 <- [%R6+0]
	.loc	47 534 7                @ /usr/bin/../lib/gcc/arm-linux-gnueabihf/6.3.0/../../../../include/c++/6.3.0/fstream:534:7
	movw	r1, :lower16:_ZTTSt14basic_ifstreamIcSt11char_traitsIcEE
	movt	r1, :upper16:_ZTTSt14basic_ifstreamIcSt11char_traitsIcEE
.Ltmp512:
	@DEBUG_VALUE: ~basic_ifstream:this <- undef
	@DEBUG_VALUE: setup:file1 <- undef
	mov	r0, r6
	bl	_ZNSt14basic_ifstreamIcSt11char_traitsIcEED2Ev
.Ltmp513:
	.loc	48 282 22               @ /usr/bin/../lib/gcc/arm-linux-gnueabihf/6.3.0/../../../../include/c++/6.3.0/bits/basic_ios.h:282:22
	add	r0, r6, #144
	bl	_ZNSt8ios_baseD2Ev
	b	.LBB3_171
.Ltmp514:
.LBB3_162:                              @ %.loopexit112
.Ltmp111:
.LBB3_163:                              @ %.body
	mov	r8, r0
.LBB3_164:                              @ %.body
.Ltmp515:
	.loc	19 136 28               @ /usr/bin/../lib/gcc/arm-linux-gnueabihf/6.3.0/../../../../include/c++/6.3.0/bits/basic_string.h:136:28
	ldr	r0, [sp, #304]
.Ltmp516:
	@DEBUG_VALUE: deallocate:__p <- %R0
	@DEBUG_VALUE: deallocate:__p <- %R0
	.loc	19 180 6                @ /usr/bin/../lib/gcc/arm-linux-gnueabihf/6.3.0/../../../../include/c++/6.3.0/bits/basic_string.h:180:6
	ldr	r1, [sp, #56]           @ 4-byte Reload
	cmp	r0, r1
	beq	.LBB3_166
.Ltmp517:
@ BB#165:
	@DEBUG_VALUE: deallocate:__p <- %R0
	@DEBUG_VALUE: deallocate:__p <- %R0
	.loc	7 110 9                 @ /usr/bin/../lib/gcc/arm-linux-gnueabihf/6.3.0/../../../../include/c++/6.3.0/ext/new_allocator.h:110:9
	bl	_ZdlPv
.Ltmp518:
.LBB3_166:                              @ %_ZNSt7__cxx1112basic_stringIcSt11char_traitsIcESaIcEED2Ev.exit35
	ldr	r0, [sp, #40]           @ 4-byte Reload
.Ltmp519:
	.loc	22 718 7                @ /usr/bin/../lib/gcc/arm-linux-gnueabihf/6.3.0/../../../../include/c++/6.3.0/sstream:718:7
	str	r0, [r11, #-560]
	ldr	r1, [sp, #32]           @ 4-byte Reload
	ldr	r0, [r0, #-12]
.Ltmp520:
	@DEBUG_VALUE: ~basic_stringstream:this <- %R9
	@DEBUG_VALUE: ~basic_stringstream:this <- %R9
	@DEBUG_VALUE: ss <- [%R9+0]
	str	r1, [r9, r0]
	ldr	r0, [sp, #36]           @ 4-byte Reload
	str	r0, [r11, #-552]
.Ltmp521:
	.loc	51 272 25               @ /usr/bin/../lib/gcc/arm-linux-gnueabihf/6.3.0/../../../../include/c++/6.3.0/bits/sstream.tcc:272:25
	ldr	r0, [sp, #28]           @ 4-byte Reload
	str	r0, [r11, #-548]
.Ltmp522:
	.loc	19 136 28               @ /usr/bin/../lib/gcc/arm-linux-gnueabihf/6.3.0/../../../../include/c++/6.3.0/bits/basic_string.h:136:28
	ldr	r0, [r11, #-512]
.Ltmp523:
	@DEBUG_VALUE: deallocate:__p <- %R0
	@DEBUG_VALUE: deallocate:__p <- %R0
	.loc	19 180 6                @ /usr/bin/../lib/gcc/arm-linux-gnueabihf/6.3.0/../../../../include/c++/6.3.0/bits/basic_string.h:180:6
	ldr	r1, [sp, #16]           @ 4-byte Reload
	cmp	r0, r1
	beq	.LBB3_168
.Ltmp524:
@ BB#167:
	@DEBUG_VALUE: deallocate:__p <- %R0
	@DEBUG_VALUE: deallocate:__p <- %R0
	@DEBUG_VALUE: ~basic_stringstream:this <- %R9
	@DEBUG_VALUE: ~basic_stringstream:this <- %R9
	@DEBUG_VALUE: ss <- [%R9+0]
	.loc	7 110 9                 @ /usr/bin/../lib/gcc/arm-linux-gnueabihf/6.3.0/../../../../include/c++/6.3.0/ext/new_allocator.h:110:9
	bl	_ZdlPv
.Ltmp525:
.LBB3_168:                              @ %_ZNSt7__cxx1118basic_stringstreamIcSt11char_traitsIcESaIcEED1Ev.exit38
	@DEBUG_VALUE: ~basic_stringstream:this <- %R9
	@DEBUG_VALUE: ~basic_stringstream:this <- %R9
	@DEBUG_VALUE: ss <- [%R9+0]
	.loc	49 198 7                @ /usr/bin/../lib/gcc/arm-linux-gnueabihf/6.3.0/../../../../include/c++/6.3.0/streambuf:198:7
	ldr	r0, [sp, #44]           @ 4-byte Reload
	str	r0, [r11, #-548]
.Ltmp526:
	.loc	49 198 9 is_stmt 0      @ /usr/bin/../lib/gcc/arm-linux-gnueabihf/6.3.0/../../../../include/c++/6.3.0/streambuf:198:9
	ldr	r0, [sp, #20]           @ 4-byte Reload
	bl	_ZNSt6localeD1Ev
	ldr	r0, [sp, #48]           @ 4-byte Reload
.Ltmp527:
	.loc	50 104 7 is_stmt 1      @ /usr/bin/../lib/gcc/arm-linux-gnueabihf/6.3.0/../../../../include/c++/6.3.0/istream:104:7
	str	r0, [r11, #-560]
	ldr	r1, [sp, #52]           @ 4-byte Reload
	ldr	r0, [r0, #-12]
	str	r1, [r9, r0]
	mov	r0, #0
.Ltmp528:
	.loc	50 104 19 is_stmt 0     @ /usr/bin/../lib/gcc/arm-linux-gnueabihf/6.3.0/../../../../include/c++/6.3.0/istream:104:19
	str	r0, [r11, #-556]
.Ltmp529:
	.loc	48 282 22 is_stmt 1     @ /usr/bin/../lib/gcc/arm-linux-gnueabihf/6.3.0/../../../../include/c++/6.3.0/bits/basic_ios.h:282:22
	ldr	r0, [sp, #24]           @ 4-byte Reload
	bl	_ZNSt8ios_baseD2Ev
.Ltmp530:
.LBB3_169:
	.loc	11 160 37               @ /usr/bin/../lib/gcc/arm-linux-gnueabihf/6.3.0/../../../../include/c++/6.3.0/bits/stl_vector.h:160:37
	ldr	r0, [sp, #84]
.Ltmp531:
	@DEBUG_VALUE: _M_deallocate:__p <- %R0
	@DEBUG_VALUE: deallocate:__p <- %R0
	@DEBUG_VALUE: deallocate:__p <- %R0
	ldr	r5, [sp, #12]           @ 4-byte Reload
.Ltmp532:
	.loc	11 177 6                @ /usr/bin/../lib/gcc/arm-linux-gnueabihf/6.3.0/../../../../include/c++/6.3.0/bits/stl_vector.h:177:6
	cmp	r0, #0
	beq	.LBB3_171
.Ltmp533:
@ BB#170:
	@DEBUG_VALUE: deallocate:__p <- %R0
	@DEBUG_VALUE: deallocate:__p <- %R0
	@DEBUG_VALUE: _M_deallocate:__p <- %R0
	.loc	7 110 9                 @ /usr/bin/../lib/gcc/arm-linux-gnueabihf/6.3.0/../../../../include/c++/6.3.0/ext/new_allocator.h:110:9
	bl	_ZdlPv
.Ltmp534:
.LBB3_171:
	.loc	19 136 28               @ /usr/bin/../lib/gcc/arm-linux-gnueabihf/6.3.0/../../../../include/c++/6.3.0/bits/basic_string.h:136:28
	ldr	r0, [r11, #-352]
.Ltmp535:
	@DEBUG_VALUE: deallocate:__p <- %R0
	@DEBUG_VALUE: deallocate:__p <- %R0
	.loc	19 180 6                @ /usr/bin/../lib/gcc/arm-linux-gnueabihf/6.3.0/../../../../include/c++/6.3.0/bits/basic_string.h:180:6
	cmp	r0, r5
	beq	.LBB3_173
.Ltmp536:
@ BB#172:
	@DEBUG_VALUE: deallocate:__p <- %R0
	@DEBUG_VALUE: deallocate:__p <- %R0
	.loc	7 110 9                 @ /usr/bin/../lib/gcc/arm-linux-gnueabihf/6.3.0/../../../../include/c++/6.3.0/ext/new_allocator.h:110:9
	bl	_ZdlPv
.Ltmp537:
.LBB3_173:
	sub	r5, r11, #328
.Ltmp538:
	@DEBUG_VALUE: ~basic_ifstream:this <- %R5
	@DEBUG_VALUE: setup:file <- [%R5+0]
	.loc	47 534 7                @ /usr/bin/../lib/gcc/arm-linux-gnueabihf/6.3.0/../../../../include/c++/6.3.0/fstream:534:7
	movw	r1, :lower16:_ZTTSt14basic_ifstreamIcSt11char_traitsIcEE
	movt	r1, :upper16:_ZTTSt14basic_ifstreamIcSt11char_traitsIcEE
.Ltmp539:
	@DEBUG_VALUE: ~basic_ifstream:this <- undef
	@DEBUG_VALUE: setup:file <- undef
	mov	r0, r5
	bl	_ZNSt14basic_ifstreamIcSt11char_traitsIcEED2Ev
.Ltmp540:
	.loc	48 282 22               @ /usr/bin/../lib/gcc/arm-linux-gnueabihf/6.3.0/../../../../include/c++/6.3.0/bits/basic_ios.h:282:22
	add	r0, r5, #144
	bl	_ZNSt8ios_baseD2Ev
	mov	r0, r8
	mov	lr, pc
	b	_Unwind_Resume
.Ltmp541:
.Lfunc_end3:
	.size	setup, .Lfunc_end3-setup
	.cfi_endproc
	.file	56 "<stdin>"
	.file	57 "/usr/bin/../lib/gcc/arm-linux-gnueabihf/6.3.0/../../../../include/c++/6.3.0/bits" "stringfwd.h"
	.file	58 "/usr/bin/../lib/gcc/arm-linux-gnueabihf/6.3.0/../../../../include/c++/6.3.0/bits" "stl_uninitialized.h"
	.globl	__gxx_personality_v0
	.personality __gxx_personality_v0
	.handlerdata
	.p2align	2
GCC_except_table3:
.Lexception1:
	.byte	255                     @ @LPStart Encoding = omit
	.byte	0                       @ @TType Encoding = absptr
	.asciz	"\243\203"              @ @TType base offset
	.byte	3                       @ Call site Encoding = udata4
	.ascii	"\240\003"              @ Call site table length
	.long	.Lfunc_begin3-.Lfunc_begin3 @ >> Call Site 1 <<
	.long	.Ltmp45-.Lfunc_begin3   @   Call between .Lfunc_begin3 and .Ltmp45
	.long	0                       @     has no landing pad
	.byte	0                       @   On action: cleanup
	.long	.Ltmp45-.Lfunc_begin3   @ >> Call Site 2 <<
	.long	.Ltmp46-.Ltmp45         @   Call between .Ltmp45 and .Ltmp46
	.long	.Ltmp47-.Lfunc_begin3   @     jumps to .Ltmp47
	.byte	0                       @   On action: cleanup
	.long	.Ltmp46-.Lfunc_begin3   @ >> Call Site 3 <<
	.long	.Ltmp51-.Ltmp46         @   Call between .Ltmp46 and .Ltmp51
	.long	0                       @     has no landing pad
	.byte	0                       @   On action: cleanup
	.long	.Ltmp51-.Lfunc_begin3   @ >> Call Site 4 <<
	.long	.Ltmp56-.Ltmp51         @   Call between .Ltmp51 and .Ltmp56
	.long	.Ltmp57-.Lfunc_begin3   @     jumps to .Ltmp57
	.byte	0                       @   On action: cleanup
	.long	.Ltmp106-.Lfunc_begin3  @ >> Call Site 5 <<
	.long	.Ltmp107-.Ltmp106       @   Call between .Ltmp106 and .Ltmp107
	.long	.Ltmp108-.Lfunc_begin3  @     jumps to .Ltmp108
	.byte	0                       @   On action: cleanup
	.long	.Ltmp109-.Lfunc_begin3  @ >> Call Site 6 <<
	.long	.Ltmp110-.Ltmp109       @   Call between .Ltmp109 and .Ltmp110
	.long	.Ltmp111-.Lfunc_begin3  @     jumps to .Ltmp111
	.byte	0                       @   On action: cleanup
	.long	.Ltmp122-.Lfunc_begin3  @ >> Call Site 7 <<
	.long	.Ltmp123-.Ltmp122       @   Call between .Ltmp122 and .Ltmp123
	.long	.Ltmp124-.Lfunc_begin3  @     jumps to .Ltmp124
	.byte	0                       @   On action: cleanup
	.long	.Ltmp123-.Lfunc_begin3  @ >> Call Site 8 <<
	.long	.Ltmp112-.Ltmp123       @   Call between .Ltmp123 and .Ltmp112
	.long	0                       @     has no landing pad
	.byte	0                       @   On action: cleanup
	.long	.Ltmp112-.Lfunc_begin3  @ >> Call Site 9 <<
	.long	.Ltmp113-.Ltmp112       @   Call between .Ltmp112 and .Ltmp113
	.long	.Ltmp119-.Lfunc_begin3  @     jumps to .Ltmp119
	.byte	0                       @   On action: cleanup
	.long	.Ltmp113-.Lfunc_begin3  @ >> Call Site 10 <<
	.long	.Ltmp117-.Ltmp113       @   Call between .Ltmp113 and .Ltmp117
	.long	0                       @     has no landing pad
	.byte	0                       @   On action: cleanup
	.long	.Ltmp117-.Lfunc_begin3  @ >> Call Site 11 <<
	.long	.Ltmp118-.Ltmp117       @   Call between .Ltmp117 and .Ltmp118
	.long	.Ltmp119-.Lfunc_begin3  @     jumps to .Ltmp119
	.byte	0                       @   On action: cleanup
	.long	.Ltmp131-.Lfunc_begin3  @ >> Call Site 12 <<
	.long	.Ltmp132-.Ltmp131       @   Call between .Ltmp131 and .Ltmp132
	.long	.Ltmp133-.Lfunc_begin3  @     jumps to .Ltmp133
	.byte	0                       @   On action: cleanup
	.long	.Ltmp48-.Lfunc_begin3   @ >> Call Site 13 <<
	.long	.Ltmp49-.Ltmp48         @   Call between .Ltmp48 and .Ltmp49
	.long	.Ltmp50-.Lfunc_begin3   @     jumps to .Ltmp50
	.byte	0                       @   On action: cleanup
	.long	.Ltmp58-.Lfunc_begin3   @ >> Call Site 14 <<
	.long	.Ltmp63-.Ltmp58         @   Call between .Ltmp58 and .Ltmp63
	.long	.Ltmp133-.Lfunc_begin3  @     jumps to .Ltmp133
	.byte	0                       @   On action: cleanup
	.long	.Ltmp67-.Lfunc_begin3   @ >> Call Site 15 <<
	.long	.Ltmp72-.Ltmp67         @   Call between .Ltmp67 and .Ltmp72
	.long	.Ltmp73-.Lfunc_begin3   @     jumps to .Ltmp73
	.byte	0                       @   On action: cleanup
	.long	.Ltmp78-.Lfunc_begin3   @ >> Call Site 16 <<
	.long	.Ltmp79-.Ltmp78         @   Call between .Ltmp78 and .Ltmp79
	.long	.Ltmp80-.Lfunc_begin3   @     jumps to .Ltmp80
	.byte	0                       @   On action: cleanup
	.long	.Ltmp81-.Lfunc_begin3   @ >> Call Site 17 <<
	.long	.Ltmp82-.Ltmp81         @   Call between .Ltmp81 and .Ltmp82
	.long	.Ltmp83-.Lfunc_begin3   @     jumps to .Ltmp83
	.byte	0                       @   On action: cleanup
	.long	.Ltmp94-.Lfunc_begin3   @ >> Call Site 18 <<
	.long	.Ltmp95-.Ltmp94         @   Call between .Ltmp94 and .Ltmp95
	.long	.Ltmp96-.Lfunc_begin3   @     jumps to .Ltmp96
	.byte	0                       @   On action: cleanup
	.long	.Ltmp95-.Lfunc_begin3   @ >> Call Site 19 <<
	.long	.Ltmp84-.Ltmp95         @   Call between .Ltmp95 and .Ltmp84
	.long	0                       @     has no landing pad
	.byte	0                       @   On action: cleanup
	.long	.Ltmp84-.Lfunc_begin3   @ >> Call Site 20 <<
	.long	.Ltmp85-.Ltmp84         @   Call between .Ltmp84 and .Ltmp85
	.long	.Ltmp91-.Lfunc_begin3   @     jumps to .Ltmp91
	.byte	0                       @   On action: cleanup
	.long	.Ltmp85-.Lfunc_begin3   @ >> Call Site 21 <<
	.long	.Ltmp89-.Ltmp85         @   Call between .Ltmp85 and .Ltmp89
	.long	0                       @     has no landing pad
	.byte	0                       @   On action: cleanup
	.long	.Ltmp89-.Lfunc_begin3   @ >> Call Site 22 <<
	.long	.Ltmp90-.Ltmp89         @   Call between .Ltmp89 and .Ltmp90
	.long	.Ltmp91-.Lfunc_begin3   @     jumps to .Ltmp91
	.byte	0                       @   On action: cleanup
	.long	.Ltmp103-.Lfunc_begin3  @ >> Call Site 23 <<
	.long	.Ltmp104-.Ltmp103       @   Call between .Ltmp103 and .Ltmp104
	.long	.Ltmp105-.Lfunc_begin3  @     jumps to .Ltmp105
	.byte	0                       @   On action: cleanup
	.long	.Ltmp64-.Lfunc_begin3   @ >> Call Site 24 <<
	.long	.Ltmp65-.Ltmp64         @   Call between .Ltmp64 and .Ltmp65
	.long	.Ltmp66-.Lfunc_begin3   @     jumps to .Ltmp66
	.byte	0                       @   On action: cleanup
	.long	.Ltmp74-.Lfunc_begin3   @ >> Call Site 25 <<
	.long	.Ltmp77-.Ltmp74         @   Call between .Ltmp74 and .Ltmp77
	.long	.Ltmp105-.Lfunc_begin3  @     jumps to .Ltmp105
	.byte	0                       @   On action: cleanup
	.long	.Ltmp120-.Lfunc_begin3  @ >> Call Site 26 <<
	.long	.Ltmp129-.Ltmp120       @   Call between .Ltmp120 and .Ltmp129
	.long	.Ltmp130-.Lfunc_begin3  @     jumps to .Ltmp130
	.byte	0                       @   On action: cleanup
	.long	.Ltmp92-.Lfunc_begin3   @ >> Call Site 27 <<
	.long	.Ltmp101-.Ltmp92        @   Call between .Ltmp92 and .Ltmp101
	.long	.Ltmp102-.Lfunc_begin3  @     jumps to .Ltmp102
	.byte	0                       @   On action: cleanup
	.long	.Ltmp125-.Lfunc_begin3  @ >> Call Site 28 <<
	.long	.Ltmp126-.Ltmp125       @   Call between .Ltmp125 and .Ltmp126
	.long	.Ltmp127-.Lfunc_begin3  @     jumps to .Ltmp127
	.byte	0                       @   On action: cleanup
	.long	.Ltmp97-.Lfunc_begin3   @ >> Call Site 29 <<
	.long	.Ltmp98-.Ltmp97         @   Call between .Ltmp97 and .Ltmp98
	.long	.Ltmp99-.Lfunc_begin3   @     jumps to .Ltmp99
	.byte	0                       @   On action: cleanup
	.long	.Ltmp114-.Lfunc_begin3  @ >> Call Site 30 <<
	.long	.Ltmp115-.Ltmp114       @   Call between .Ltmp114 and .Ltmp115
	.long	.Ltmp116-.Lfunc_begin3  @     jumps to .Ltmp116
	.byte	0                       @   On action: cleanup
	.long	.Ltmp86-.Lfunc_begin3   @ >> Call Site 31 <<
	.long	.Ltmp87-.Ltmp86         @   Call between .Ltmp86 and .Ltmp87
	.long	.Ltmp88-.Lfunc_begin3   @     jumps to .Ltmp88
	.byte	0                       @   On action: cleanup
	.long	.Ltmp87-.Lfunc_begin3   @ >> Call Site 32 <<
	.long	.Lfunc_end3-.Ltmp87     @   Call between .Ltmp87 and .Lfunc_end3
	.long	0                       @     has no landing pad
	.byte	0                       @   On action: cleanup
	.p2align	2
	.fnend

	.globl	render
	.p2align	2
	.type	render,%function
render:                                 @ @render
.Lfunc_begin4:
	.loc	5 82 0                  @ /root/Bela/projects/frek_domen_filtriranje/render.cpp:82:0
	.fnstart
	.cfi_startproc
@ BB#0:
	.save	{r4, r5, r6, r7, r8, r9, r10, r11, lr}
	push	{r4, r5, r6, r7, r8, r9, r10, r11, lr}
.Ltmp542:
	.cfi_def_cfa_offset 36
.Ltmp543:
	.cfi_offset lr, -4
.Ltmp544:
	.cfi_offset r11, -8
.Ltmp545:
	.cfi_offset r10, -12
.Ltmp546:
	.cfi_offset r9, -16
.Ltmp547:
	.cfi_offset r8, -20
.Ltmp548:
	.cfi_offset r7, -24
.Ltmp549:
	.cfi_offset r6, -28
.Ltmp550:
	.cfi_offset r5, -32
.Ltmp551:
	.cfi_offset r4, -36
	.setfp	r11, sp, #28
	add	r11, sp, #28
.Ltmp552:
	.cfi_def_cfa r11, 8
	.pad	#60
	sub	sp, sp, #60
	@DEBUG_VALUE: render:context <- %R0
	@DEBUG_VALUE: render:userData <- %R1
.Ltmp553:
	.loc	5 84 5 prologue_end     @ /root/Bela/projects/frek_domen_filtriranje/render.cpp:84:5
	movw	r1, :lower16:.L_MergedGlobals
.Ltmp554:
	mov	r4, r0
.Ltmp555:
	@DEBUG_VALUE: render:context <- %R4
	movt	r1, :upper16:.L_MergedGlobals
	add	r0, r1, #84
	add	r1, r1, #24
	bl	_ZN3Fft3fftERKSt6vectorIfSaIfEE
.Ltmp556:
	@DEBUG_VALUE: n <- 0
	str	r4, [sp]                @ 4-byte Spill
.Ltmp557:
	@DEBUG_VALUE: render:context <- [%SP+0]
	.loc	5 86 39 discriminator 1 @ /root/Bela/projects/frek_domen_filtriranje/render.cpp:86:39
	ldr	r0, [r4, #20]
	str	r0, [r11, #-40]         @ 4-byte Spill
	.loc	5 86 2 is_stmt 0 discriminator 1 @ /root/Bela/projects/frek_domen_filtriranje/render.cpp:86:2
	cmp	r0, #0
	beq	.LBB4_10
.Ltmp558:
@ BB#1:                                 @ %.lr.ph81
	@DEBUG_VALUE: render:context <- [%SP+0]
	.loc	5 84 5 is_stmt 1        @ /root/Bela/projects/frek_domen_filtriranje/render.cpp:84:5
	movw	r0, :lower16:.L_MergedGlobals
	movt	r0, :upper16:.L_MergedGlobals
	mov	r1, r0
.Ltmp559:
	.loc	11 781 32               @ /usr/bin/../lib/gcc/arm-linux-gnueabihf/6.3.0/../../../../include/c++/6.3.0/bits/stl_vector.h:781:32
	ldr	r0, [r1, #24]
.Ltmp560:
	.loc	11 781 32 is_stmt 0     @ /usr/bin/../lib/gcc/arm-linux-gnueabihf/6.3.0/../../../../include/c++/6.3.0/bits/stl_vector.h:781:32
	str	r0, [sp, #40]           @ 4-byte Spill
	ldr	r0, [r1, #36]
.Ltmp561:
	.loc	5 93 32 is_stmt 1 discriminator 1 @ /root/Bela/projects/frek_domen_filtriranje/render.cpp:93:32
	ldrd	r2, r3, [r1]
.Ltmp562:
	.loc	11 781 32               @ /usr/bin/../lib/gcc/arm-linux-gnueabihf/6.3.0/../../../../include/c++/6.3.0/bits/stl_vector.h:781:32
	str	r0, [sp, #28]           @ 4-byte Spill
.Ltmp563:
	.loc	5 95 39                 @ /root/Bela/projects/frek_domen_filtriranje/render.cpp:95:39
	add	r0, r3, r3, lsr #31
.Ltmp564:
	.loc	11 781 32               @ /usr/bin/../lib/gcc/arm-linux-gnueabihf/6.3.0/../../../../include/c++/6.3.0/bits/stl_vector.h:781:32
	ldr	r7, [r1, #72]
.Ltmp565:
	.loc	5 95 39                 @ /root/Bela/projects/frek_domen_filtriranje/render.cpp:95:39
	asr	r5, r0, #1
.Ltmp566:
	@DEBUG_VALUE: fdi:n <- %R5
	@DEBUG_VALUE: operator[]:__n <- %R5
	@DEBUG_VALUE: fdr:n <- %R5
	@DEBUG_VALUE: operator[]:__n <- %R5
	@DEBUG_VALUE: operator[]:__n <- %R5
	@DEBUG_VALUE: fdr:n <- %R5
	@DEBUG_VALUE: operator[]:__n <- %R5
	@DEBUG_VALUE: fdi:n <- %R5
	@DEBUG_VALUE: operator[]:__n <- %R5
	@DEBUG_VALUE: operator[]:__n <- %R5
	.loc	11 781 32               @ /usr/bin/../lib/gcc/arm-linux-gnueabihf/6.3.0/../../../../include/c++/6.3.0/bits/stl_vector.h:781:32
	ldr	r6, [r1, #60]
.Ltmp567:
	.loc	11 781 32 is_stmt 0     @ /usr/bin/../lib/gcc/arm-linux-gnueabihf/6.3.0/../../../../include/c++/6.3.0/bits/stl_vector.h:781:32
	add	r0, r5, r5, lsl #1
	str	r7, [sp, #20]           @ 4-byte Spill
	str	r6, [sp, #16]           @ 4-byte Spill
.Ltmp568:
	.loc	11 781 32               @ /usr/bin/../lib/gcc/arm-linux-gnueabihf/6.3.0/../../../../include/c++/6.3.0/bits/stl_vector.h:781:32
	add	r7, r7, r0, lsl #2
.Ltmp569:
	.loc	11 781 32               @ /usr/bin/../lib/gcc/arm-linux-gnueabihf/6.3.0/../../../../include/c++/6.3.0/bits/stl_vector.h:781:32
	add	r0, r6, r0, lsl #2
	str	r0, [sp, #8]            @ 4-byte Spill
	ldr	r0, [sp]                @ 4-byte Reload
	str	r7, [sp, #12]           @ 4-byte Spill
	ldr	r7, [r0]
	str	r7, [sp, #36]           @ 4-byte Spill
	mov	r7, #0
	ldr	r0, [r0, #24]
.Ltmp570:
	.loc	11 781 32               @ /usr/bin/../lib/gcc/arm-linux-gnueabihf/6.3.0/../../../../include/c++/6.3.0/bits/stl_vector.h:781:32
	str	r0, [sp, #32]           @ 4-byte Spill
	ldr	r0, [r1, #48]
.Ltmp571:
	.loc	16 43 38 is_stmt 1      @ ./libraries/Fft/Fft.h:43:38
	str	r0, [sp, #24]           @ 4-byte Spill
	ldr	r0, [r1, #88]
.Ltmp572:
	.loc	5 94 18                 @ /root/Bela/projects/frek_domen_filtriranje/render.cpp:94:18
	sub	r1, r3, #1
	str	r1, [sp, #44]           @ 4-byte Spill
.Ltmp573:
	.loc	16 43 57                @ ./libraries/Fft/Fft.h:43:57
	add	r10, r0, r5, lsl #3
	str	r5, [r11, #-32]         @ 4-byte Spill
.Ltmp574:
	@DEBUG_VALUE: fdi:n <- [%R11+-32]
	@DEBUG_VALUE: operator[]:__n <- [%R11+-32]
	@DEBUG_VALUE: fdr:n <- [%R11+-32]
	@DEBUG_VALUE: operator[]:__n <- [%R11+-32]
	@DEBUG_VALUE: operator[]:__n <- [%R11+-32]
	@DEBUG_VALUE: fdr:n <- [%R11+-32]
	@DEBUG_VALUE: operator[]:__n <- [%R11+-32]
	@DEBUG_VALUE: fdi:n <- [%R11+-32]
	@DEBUG_VALUE: operator[]:__n <- [%R11+-32]
	@DEBUG_VALUE: operator[]:__n <- [%R11+-32]
	add	r12, r10, #4
	str	r0, [sp, #4]            @ 4-byte Spill
.Ltmp575:
.LBB4_2:                                @ =>This Loop Header: Depth=1
                                        @     Child Loop BB4_8 Depth 2
                                        @     Child Loop BB4_6 Depth 2
	@DEBUG_VALUE: audioRead:channel <- 0
	@DEBUG_VALUE: operator[]:__n <- %R7
	.file	59 "./include" "Bela.h"
	.loc	59 1455 32              @ ./include/Bela.h:1455:32
	ldr	r0, [sp, #32]           @ 4-byte Reload
	.loc	59 1455 9 is_stmt 0     @ ./include/Bela.h:1455:9
	ldr	r1, [sp, #36]           @ 4-byte Reload
	.loc	59 1455 32              @ ./include/Bela.h:1455:32
	mul	r0, r0, r7
	.loc	59 1455 9               @ ./include/Bela.h:1455:9
	ldr	r0, [r1, r0, lsl #2]
.Ltmp576:
	.loc	5 88 9 is_stmt 1        @ /root/Bela/projects/frek_domen_filtriranje/render.cpp:88:9
	ldr	r1, [sp, #40]           @ 4-byte Reload
	str	r0, [r1, r7, lsl #2]
.Ltmp577:
	.loc	5 91 14                 @ /root/Bela/projects/frek_domen_filtriranje/render.cpp:91:14
	ldr	r0, [sp, #44]           @ 4-byte Reload
	str	r7, [r11, #-36]         @ 4-byte Spill
.Ltmp578:
	@DEBUG_VALUE: operator[]:__n <- [%R11+-36]
	cmp	r7, r0
	mov	r0, #0
	movwne	r0, #1
	tst	r0, r7
	bne	.LBB4_9
@ BB#3:                                 @   in Loop: Header=BB4_2 Depth=1
	@DEBUG_VALUE: operator[]:__n <- [%R11+-36]
	cmp	r2, #0
	beq	.LBB4_9
@ BB#4:                                 @ %.lr.ph77
                                        @   in Loop: Header=BB4_2 Depth=1
	@DEBUG_VALUE: operator[]:__n <- [%R11+-36]
	ldr	r0, [r11, #-36]         @ 4-byte Reload
.Ltmp579:
	.loc	5 94 9                  @ /root/Bela/projects/frek_domen_filtriranje/render.cpp:94:9
	ldr	r1, [sp, #44]           @ 4-byte Reload
	cmp	r0, r1
	bne	.LBB4_7
@ BB#5:                                 @ %.lr.ph77.split.us.preheader
                                        @   in Loop: Header=BB4_2 Depth=1
	@DEBUG_VALUE: operator[]:__n <- [%R11+-36]
.Ltmp580:
	.loc	11 781 32               @ /usr/bin/../lib/gcc/arm-linux-gnueabihf/6.3.0/../../../../include/c++/6.3.0/bits/stl_vector.h:781:32
	ldr	r0, [sp, #12]           @ 4-byte Reload
	ldr	r4, [sp, #28]           @ 4-byte Reload
	ldr	r5, [sp, #24]           @ 4-byte Reload
	ldr	r1, [r0]
.Ltmp581:
	.loc	11 781 32 is_stmt 0     @ /usr/bin/../lib/gcc/arm-linux-gnueabihf/6.3.0/../../../../include/c++/6.3.0/bits/stl_vector.h:781:32
	ldr	r0, [sp, #8]            @ 4-byte Reload
	ldr	r3, [r0]
	mov	r0, #0
.Ltmp582:
.LBB4_6:                                @ %.lr.ph77.split.us
                                        @   Parent Loop BB4_2 Depth=1
                                        @ =>  This Inner Loop Header: Depth=2
	@DEBUG_VALUE: operator[]:__n <- %R0
	.loc	5 95 64 is_stmt 1       @ /root/Bela/projects/frek_domen_filtriranje/render.cpp:95:64
	vldr	s0, [r10]
.Ltmp583:
	.loc	5 93 48 discriminator 3 @ /root/Bela/projects/frek_domen_filtriranje/render.cpp:93:48
	add	r0, r0, #1
.Ltmp584:
	@DEBUG_VALUE: k <- %R0
	.loc	5 95 78                 @ /root/Bela/projects/frek_domen_filtriranje/render.cpp:95:78
	vldr	s6, [r1]
.Ltmp585:
	.loc	5 93 4 discriminator 1  @ /root/Bela/projects/frek_domen_filtriranje/render.cpp:93:4
	cmp	r0, r2
.Ltmp586:
	.loc	5 95 29                 @ /root/Bela/projects/frek_domen_filtriranje/render.cpp:95:29
	vldr	s2, [r12]
	.loc	5 95 43 is_stmt 0       @ /root/Bela/projects/frek_domen_filtriranje/render.cpp:95:43
	vldr	s4, [r3]
	.loc	5 95 77                 @ /root/Bela/projects/frek_domen_filtriranje/render.cpp:95:77
	vmul.f32	d17, d3, d0
.Ltmp587:
	.loc	11 781 32 is_stmt 1     @ /usr/bin/../lib/gcc/arm-linux-gnueabihf/6.3.0/../../../../include/c++/6.3.0/bits/stl_vector.h:781:32
	ldr	r6, [r4], #12
.Ltmp588:
	.loc	5 95 42                 @ /root/Bela/projects/frek_domen_filtriranje/render.cpp:95:42
	vmul.f32	d16, d2, d1
	ldr	r7, [r11, #-32]         @ 4-byte Reload
.Ltmp589:
	.loc	11 781 41               @ /usr/bin/../lib/gcc/arm-linux-gnueabihf/6.3.0/../../../../include/c++/6.3.0/bits/stl_vector.h:781:41
	add	r6, r6, r7, lsl #2
.Ltmp590:
	.loc	5 95 60                 @ /root/Bela/projects/frek_domen_filtriranje/render.cpp:95:60
	vadd.f32	d0, d17, d16
	.loc	5 95 25 is_stmt 0       @ /root/Bela/projects/frek_domen_filtriranje/render.cpp:95:25
	vstr	s0, [r6]
	.loc	5 96 78 is_stmt 1       @ /root/Bela/projects/frek_domen_filtriranje/render.cpp:96:78
	vldr	s4, [r1]
.Ltmp591:
	.loc	5 93 30 discriminator 1 @ /root/Bela/projects/frek_domen_filtriranje/render.cpp:93:30
	add	r1, r1, #4
.Ltmp592:
	.loc	5 96 64                 @ /root/Bela/projects/frek_domen_filtriranje/render.cpp:96:64
	vldr	s0, [r12]
	.loc	5 96 43 is_stmt 0       @ /root/Bela/projects/frek_domen_filtriranje/render.cpp:96:43
	vldr	s6, [r3]
.Ltmp593:
	.loc	5 93 30 is_stmt 1 discriminator 1 @ /root/Bela/projects/frek_domen_filtriranje/render.cpp:93:30
	add	r3, r3, #4
.Ltmp594:
	.loc	5 96 29                 @ /root/Bela/projects/frek_domen_filtriranje/render.cpp:96:29
	vldr	s2, [r10]
	.loc	5 96 77 is_stmt 0       @ /root/Bela/projects/frek_domen_filtriranje/render.cpp:96:77
	vmul.f32	d16, d2, d0
.Ltmp595:
	.loc	11 781 32 is_stmt 1     @ /usr/bin/../lib/gcc/arm-linux-gnueabihf/6.3.0/../../../../include/c++/6.3.0/bits/stl_vector.h:781:32
	ldr	r6, [r5], #12
.Ltmp596:
	.loc	5 96 42                 @ /root/Bela/projects/frek_domen_filtriranje/render.cpp:96:42
	vmul.f32	d17, d3, d1
.Ltmp597:
	.loc	11 781 41               @ /usr/bin/../lib/gcc/arm-linux-gnueabihf/6.3.0/../../../../include/c++/6.3.0/bits/stl_vector.h:781:41
	add	r6, r6, r7, lsl #2
.Ltmp598:
	.loc	5 96 60                 @ /root/Bela/projects/frek_domen_filtriranje/render.cpp:96:60
	vsub.f32	d0, d17, d16
	.loc	5 96 25 is_stmt 0       @ /root/Bela/projects/frek_domen_filtriranje/render.cpp:96:25
	vstr	s0, [r6]
	blo	.LBB4_6
	b	.LBB4_9
.Ltmp599:
.LBB4_7:                                @ %.lr.ph77.split.preheader
                                        @   in Loop: Header=BB4_2 Depth=1
	@DEBUG_VALUE: operator[]:__n <- [%R11+-36]
	.loc	5 99 29 is_stmt 1       @ /root/Bela/projects/frek_domen_filtriranje/render.cpp:99:29
	lsr	r3, r0, #1
.Ltmp600:
	@DEBUG_VALUE: fdi:n <- %R3
	@DEBUG_VALUE: operator[]:__n <- %R3
	@DEBUG_VALUE: fdr:n <- %R3
	@DEBUG_VALUE: operator[]:__n <- %R3
	@DEBUG_VALUE: operator[]:__n <- %R3
	@DEBUG_VALUE: fdr:n <- %R3
	@DEBUG_VALUE: operator[]:__n <- %R3
	@DEBUG_VALUE: fdi:n <- %R3
	@DEBUG_VALUE: operator[]:__n <- %R3
	@DEBUG_VALUE: operator[]:__n <- %R3
	.loc	16 43 57                @ ./libraries/Fft/Fft.h:43:57
	ldr	r0, [sp, #4]            @ 4-byte Reload
.Ltmp601:
	.loc	11 781 32               @ /usr/bin/../lib/gcc/arm-linux-gnueabihf/6.3.0/../../../../include/c++/6.3.0/bits/stl_vector.h:781:32
	ldr	r7, [sp, #20]           @ 4-byte Reload
.Ltmp602:
	.loc	16 43 57                @ ./libraries/Fft/Fft.h:43:57
	add	r8, r0, r3, lsl #3
.Ltmp603:
	.loc	11 781 32               @ /usr/bin/../lib/gcc/arm-linux-gnueabihf/6.3.0/../../../../include/c++/6.3.0/bits/stl_vector.h:781:32
	add	r0, r3, r3, lsl #1
	ldr	r9, [sp, #24]           @ 4-byte Reload
.Ltmp604:
	.loc	16 43 57                @ ./libraries/Fft/Fft.h:43:57
	add	r1, r8, #4
.Ltmp605:
	.loc	11 781 32               @ /usr/bin/../lib/gcc/arm-linux-gnueabihf/6.3.0/../../../../include/c++/6.3.0/bits/stl_vector.h:781:32
	ldr	r4, [r7, r0, lsl #2]
.Ltmp606:
	.loc	11 781 32 is_stmt 0     @ /usr/bin/../lib/gcc/arm-linux-gnueabihf/6.3.0/../../../../include/c++/6.3.0/bits/stl_vector.h:781:32
	ldr	r7, [sp, #16]           @ 4-byte Reload
	ldr	r5, [sp, #28]           @ 4-byte Reload
	ldr	r6, [r7, r0, lsl #2]
	mov	r0, #0
.Ltmp607:
.LBB4_8:                                @ %.lr.ph77.split
                                        @   Parent Loop BB4_2 Depth=1
                                        @ =>  This Inner Loop Header: Depth=2
	@DEBUG_VALUE: operator[]:__n <- %R0
	.loc	5 99 49 is_stmt 1       @ /root/Bela/projects/frek_domen_filtriranje/render.cpp:99:49
	vldr	s0, [r8]
.Ltmp608:
	.loc	5 93 48 discriminator 3 @ /root/Bela/projects/frek_domen_filtriranje/render.cpp:93:48
	add	r0, r0, #1
.Ltmp609:
	@DEBUG_VALUE: k <- %R0
	.loc	5 99 58                 @ /root/Bela/projects/frek_domen_filtriranje/render.cpp:99:58
	vldr	s6, [r4]
.Ltmp610:
	.loc	5 93 4 discriminator 1  @ /root/Bela/projects/frek_domen_filtriranje/render.cpp:93:4
	cmp	r0, r2
.Ltmp611:
	.loc	5 99 24                 @ /root/Bela/projects/frek_domen_filtriranje/render.cpp:99:24
	vldr	s2, [r1]
	.loc	5 99 33 is_stmt 0       @ /root/Bela/projects/frek_domen_filtriranje/render.cpp:99:33
	vldr	s4, [r6]
	.loc	5 99 57                 @ /root/Bela/projects/frek_domen_filtriranje/render.cpp:99:57
	vmul.f32	d17, d3, d0
.Ltmp612:
	.loc	11 781 32 is_stmt 1     @ /usr/bin/../lib/gcc/arm-linux-gnueabihf/6.3.0/../../../../include/c++/6.3.0/bits/stl_vector.h:781:32
	ldr	lr, [r5], #12
.Ltmp613:
	.loc	5 99 32                 @ /root/Bela/projects/frek_domen_filtriranje/render.cpp:99:32
	vmul.f32	d16, d2, d1
.Ltmp614:
	.loc	11 781 41               @ /usr/bin/../lib/gcc/arm-linux-gnueabihf/6.3.0/../../../../include/c++/6.3.0/bits/stl_vector.h:781:41
	add	r7, lr, r3, lsl #2
.Ltmp615:
	.loc	5 99 45                 @ /root/Bela/projects/frek_domen_filtriranje/render.cpp:99:45
	vadd.f32	d0, d17, d16
	.loc	5 99 20 is_stmt 0       @ /root/Bela/projects/frek_domen_filtriranje/render.cpp:99:20
	vstr	s0, [r7]
	.loc	5 100 58 is_stmt 1      @ /root/Bela/projects/frek_domen_filtriranje/render.cpp:100:58
	vldr	s4, [r4]
.Ltmp616:
	.loc	5 93 30 discriminator 1 @ /root/Bela/projects/frek_domen_filtriranje/render.cpp:93:30
	add	r4, r4, #4
.Ltmp617:
	.loc	5 100 49                @ /root/Bela/projects/frek_domen_filtriranje/render.cpp:100:49
	vldr	s0, [r1]
	.loc	5 100 33 is_stmt 0      @ /root/Bela/projects/frek_domen_filtriranje/render.cpp:100:33
	vldr	s6, [r6]
.Ltmp618:
	.loc	5 93 30 is_stmt 1 discriminator 1 @ /root/Bela/projects/frek_domen_filtriranje/render.cpp:93:30
	add	r6, r6, #4
.Ltmp619:
	.loc	5 100 24                @ /root/Bela/projects/frek_domen_filtriranje/render.cpp:100:24
	vldr	s2, [r8]
	.loc	5 100 57 is_stmt 0      @ /root/Bela/projects/frek_domen_filtriranje/render.cpp:100:57
	vmul.f32	d16, d2, d0
.Ltmp620:
	.loc	11 781 32 is_stmt 1     @ /usr/bin/../lib/gcc/arm-linux-gnueabihf/6.3.0/../../../../include/c++/6.3.0/bits/stl_vector.h:781:32
	ldr	r7, [r9], #12
.Ltmp621:
	.loc	5 100 32                @ /root/Bela/projects/frek_domen_filtriranje/render.cpp:100:32
	vmul.f32	d17, d3, d1
.Ltmp622:
	.loc	11 781 41               @ /usr/bin/../lib/gcc/arm-linux-gnueabihf/6.3.0/../../../../include/c++/6.3.0/bits/stl_vector.h:781:41
	add	r7, r7, r3, lsl #2
.Ltmp623:
	.loc	5 100 45                @ /root/Bela/projects/frek_domen_filtriranje/render.cpp:100:45
	vsub.f32	d0, d17, d16
	.loc	5 100 20 is_stmt 0      @ /root/Bela/projects/frek_domen_filtriranje/render.cpp:100:20
	vstr	s0, [r7]
	blo	.LBB4_8
.Ltmp624:
.LBB4_9:                                @ %.loopexit
                                        @   in Loop: Header=BB4_2 Depth=1
	ldr	r7, [r11, #-36]         @ 4-byte Reload
	.loc	5 86 2 is_stmt 1 discriminator 1 @ /root/Bela/projects/frek_domen_filtriranje/render.cpp:86:2
	ldr	r0, [r11, #-40]         @ 4-byte Reload
	.loc	5 86 53 is_stmt 0 discriminator 3 @ /root/Bela/projects/frek_domen_filtriranje/render.cpp:86:53
	add	r7, r7, #1
.Ltmp625:
	@DEBUG_VALUE: n <- %R7
	.loc	5 86 2 discriminator 1  @ /root/Bela/projects/frek_domen_filtriranje/render.cpp:86:2
	cmp	r7, r0
	blo	.LBB4_2
.Ltmp626:
.LBB4_10:                               @ %.preheader68
	.loc	5 84 5 is_stmt 1        @ /root/Bela/projects/frek_domen_filtriranje/render.cpp:84:5
	movw	r6, :lower16:.L_MergedGlobals
	movt	r6, :upper16:.L_MergedGlobals
.Ltmp627:
	.loc	5 107 18 discriminator 1 @ /root/Bela/projects/frek_domen_filtriranje/render.cpp:107:18
	ldr	r0, [r6]
	.loc	5 107 2 is_stmt 0 discriminator 1 @ /root/Bela/projects/frek_domen_filtriranje/render.cpp:107:2
	cmp	r0, #1
	blt	.LBB4_14
@ BB#11:                                @ %.lr.ph75.preheader
	mov	r4, #0
	mov	r5, #0
.LBB4_12:                               @ %.lr.ph75
                                        @ =>This Inner Loop Header: Depth=1
.Ltmp628:
	@DEBUG_VALUE: operator[]:__n <- %R5
	.loc	5 108 3 is_stmt 1       @ /root/Bela/projects/frek_domen_filtriranje/render.cpp:108:3
	ldr	r0, [r6, #8]
.Ltmp629:
	.loc	11 781 32               @ /usr/bin/../lib/gcc/arm-linux-gnueabihf/6.3.0/../../../../include/c++/6.3.0/bits/stl_vector.h:781:32
	ldr	r2, [r6, #36]
.Ltmp630:
	.loc	11 781 32 is_stmt 0     @ /usr/bin/../lib/gcc/arm-linux-gnueabihf/6.3.0/../../../../include/c++/6.3.0/bits/stl_vector.h:781:32
	ldr	r1, [r6, #48]
.Ltmp631:
	.loc	5 108 3 is_stmt 1       @ /root/Bela/projects/frek_domen_filtriranje/render.cpp:108:3
	ldr	r0, [r0, r5, lsl #2]
	.loc	5 108 11 is_stmt 0 discriminator 2 @ /root/Bela/projects/frek_domen_filtriranje/render.cpp:108:11
	add	r2, r2, r4
.Ltmp632:
	.loc	11 781 32 is_stmt 1     @ /usr/bin/../lib/gcc/arm-linux-gnueabihf/6.3.0/../../../../include/c++/6.3.0/bits/stl_vector.h:781:32
	add	r1, r1, r4
.Ltmp633:
	.loc	5 108 11 discriminator 2 @ /root/Bela/projects/frek_domen_filtriranje/render.cpp:108:11
	bl	_ZN3Fft4ifftERKSt6vectorIfSaIfEES4_
	.loc	5 107 18 discriminator 1 @ /root/Bela/projects/frek_domen_filtriranje/render.cpp:107:18
	ldr	r0, [r6]
	.loc	5 107 34 is_stmt 0 discriminator 3 @ /root/Bela/projects/frek_domen_filtriranje/render.cpp:107:34
	add	r5, r5, #1
.Ltmp634:
	@DEBUG_VALUE: m <- %R5
	.loc	5 107 17 discriminator 1 @ /root/Bela/projects/frek_domen_filtriranje/render.cpp:107:17
	add	r4, r4, #12
	.loc	5 107 2 discriminator 1 @ /root/Bela/projects/frek_domen_filtriranje/render.cpp:107:2
	cmp	r5, r0
	blt	.LBB4_12
.Ltmp635:
@ BB#13:                                @ %.preheader67.loopexit
	@DEBUG_VALUE: m <- %R5
	.loc	5 111 39 is_stmt 1 discriminator 1 @ /root/Bela/projects/frek_domen_filtriranje/render.cpp:111:39
	ldr	r1, [sp]                @ 4-byte Reload
	ldr	r1, [r1, #20]
	str	r1, [r11, #-40]         @ 4-byte Spill
.Ltmp636:
.LBB4_14:                               @ %.preheader67
	.loc	5 111 2 is_stmt 0 discriminator 1 @ /root/Bela/projects/frek_domen_filtriranje/render.cpp:111:2
	ldr	r1, [r11, #-40]         @ 4-byte Reload
	cmp	r1, #0
.Ltmp637:
	.loc	5 112 3 is_stmt 1 discriminator 1 @ /root/Bela/projects/frek_domen_filtriranje/render.cpp:112:3
	cmpne	r0, #0
	beq	.LBB4_19
@ BB#15:                                @ %.preheader.us.preheader
.Ltmp638:
	.loc	5 113 20                @ /root/Bela/projects/frek_domen_filtriranje/render.cpp:113:20
	ldr	r2, [r6, #8]
	ldr	r9, [r6, #12]
	mov	r6, #0
	ldr	r1, [sp]                @ 4-byte Reload
	ldr	lr, [r1, #4]
	ldr	r1, [r1, #28]
	lsl	r12, r1, #2
.LBB4_16:                               @ %.preheader.us
                                        @ =>This Loop Header: Depth=1
                                        @     Child Loop BB4_17 Depth 2
	mov	r3, r9
	mov	r1, lr
	mov	r5, #0
.LBB4_17:                               @   Parent Loop BB4_16 Depth=1
                                        @ =>  This Inner Loop Header: Depth=2
.Ltmp639:
	@DEBUG_VALUE: operator[]:__n <- %R5
	ldr	r7, [r2, r5, lsl #2]
.Ltmp640:
	@DEBUG_VALUE: td:this <- %R7
	.loc	5 112 58 discriminator 3 @ /root/Bela/projects/frek_domen_filtriranje/render.cpp:112:58
	add	r5, r5, #1
.Ltmp641:
	@DEBUG_VALUE: channel <- %R5
	.loc	5 112 3 is_stmt 0 discriminator 1 @ /root/Bela/projects/frek_domen_filtriranje/render.cpp:112:3
	cmp	r5, r0
.Ltmp642:
	@DEBUG_VALUE: td:n <- %R6
	.loc	16 52 37 is_stmt 1      @ ./libraries/Fft/Fft.h:52:37
	ldr	r7, [r7]
.Ltmp643:
	.loc	11 781 32               @ /usr/bin/../lib/gcc/arm-linux-gnueabihf/6.3.0/../../../../include/c++/6.3.0/bits/stl_vector.h:781:32
	ldr	r4, [r3], #12
.Ltmp644:
	.loc	5 113 34                @ /root/Bela/projects/frek_domen_filtriranje/render.cpp:113:34
	ldr	r7, [r7, r6, lsl #2]
	.loc	5 113 19 is_stmt 0      @ /root/Bela/projects/frek_domen_filtriranje/render.cpp:113:19
	str	r7, [r4, r6, lsl #2]
.Ltmp645:
	.loc	59 1466 65 is_stmt 1    @ ./include/Bela.h:1466:65
	str	r7, [r1], #4
	blo	.LBB4_17
.Ltmp646:
@ BB#18:                                @ %._crit_edge.us
                                        @   in Loop: Header=BB4_16 Depth=1
	@DEBUG_VALUE: td:n <- %R6
	@DEBUG_VALUE: channel <- %R5
	.loc	5 111 2 discriminator 1 @ /root/Bela/projects/frek_domen_filtriranje/render.cpp:111:2
	add	lr, lr, r12
	.loc	5 111 53 is_stmt 0 discriminator 3 @ /root/Bela/projects/frek_domen_filtriranje/render.cpp:111:53
	add	r6, r6, #1
.Ltmp647:
	@DEBUG_VALUE: n <- %R6
	.loc	5 111 2 discriminator 1 @ /root/Bela/projects/frek_domen_filtriranje/render.cpp:111:2
	ldr	r1, [r11, #-40]         @ 4-byte Reload
	cmp	r6, r1
	blo	.LBB4_16
.Ltmp648:
.LBB4_19:                               @ %._crit_edge73
	.loc	5 118 1 is_stmt 1       @ /root/Bela/projects/frek_domen_filtriranje/render.cpp:118:1
	sub	sp, r11, #28
	pop	{r4, r5, r6, r7, r8, r9, r10, r11, pc}
.Ltmp649:
.Lfunc_end4:
	.size	render, .Lfunc_end4-render
	.cfi_endproc
	.fnend

	.globl	cleanup
	.p2align	2
	.type	cleanup,%function
cleanup:                                @ @cleanup
.Lfunc_begin5:
	.loc	5 121 0                 @ /root/Bela/projects/frek_domen_filtriranje/render.cpp:121:0
	.fnstart
	.cfi_startproc
@ BB#0:
	.save	{r4, r5, r6, r10, r11, lr}
	push	{r4, r5, r6, r10, r11, lr}
.Ltmp653:
	.cfi_def_cfa_offset 24
.Ltmp654:
	.cfi_offset lr, -4
.Ltmp655:
	.cfi_offset r11, -8
.Ltmp656:
	.cfi_offset r10, -12
.Ltmp657:
	.cfi_offset r6, -16
.Ltmp658:
	.cfi_offset r5, -20
.Ltmp659:
	.cfi_offset r4, -24
	.setfp	r11, sp, #16
	add	r11, sp, #16
.Ltmp660:
	.cfi_def_cfa r11, 8
	@DEBUG_VALUE: cleanup:context <- %R0
	@DEBUG_VALUE: cleanup:userData <- %R1
.Ltmp661:
	@DEBUG_VALUE: i <- 0
	.loc	5 122 31 prologue_end discriminator 1 @ /root/Bela/projects/frek_domen_filtriranje/render.cpp:122:31
	movw	r5, :lower16:.L_MergedGlobals
	movt	r5, :upper16:.L_MergedGlobals
	ldr	r1, [r5]
.Ltmp662:
	.loc	5 123 16                @ /root/Bela/projects/frek_domen_filtriranje/render.cpp:123:16
	ldr	r0, [r5, #8]
.Ltmp663:
	.loc	5 122 2 discriminator 1 @ /root/Bela/projects/frek_domen_filtriranje/render.cpp:122:2
	cmp	r1, #0
	beq	.LBB5_6
@ BB#1:                                 @ %.lr.ph.preheader
	mov	r6, #0
.LBB5_2:                                @ %.lr.ph
                                        @ =>This Inner Loop Header: Depth=1
.Ltmp664:
	.loc	5 123 16                @ /root/Bela/projects/frek_domen_filtriranje/render.cpp:123:16
	ldr	r4, [r0, r6, lsl #2]
.Ltmp665:
	@DEBUG_VALUE: ~Fft:this <- %R4
	.loc	5 123 9 is_stmt 0       @ /root/Bela/projects/frek_domen_filtriranje/render.cpp:123:9
	cmp	r4, #0
	beq	.LBB5_5
.Ltmp666:
@ BB#3:                                 @   in Loop: Header=BB5_2 Depth=1
	@DEBUG_VALUE: ~Fft:this <- %R4
	.loc	16 16 10 is_stmt 1      @ ./libraries/Fft/Fft.h:16:10
.Ltmp650:
	mov	r0, r4
	bl	_ZN3Fft7cleanupEv
.Ltmp651:
.Ltmp667:
@ BB#4:                                 @ %_ZN3FftD2Ev.exit
                                        @   in Loop: Header=BB5_2 Depth=1
	@DEBUG_VALUE: ~Fft:this <- %R4
	.loc	5 123 9 discriminator 2 @ /root/Bela/projects/frek_domen_filtriranje/render.cpp:123:9
	mov	r0, r4
	bl	_ZdlPv
.Ltmp668:
	.loc	5 122 31 discriminator 1 @ /root/Bela/projects/frek_domen_filtriranje/render.cpp:122:31
	ldr	r1, [r5]
.Ltmp669:
	.loc	5 123 16                @ /root/Bela/projects/frek_domen_filtriranje/render.cpp:123:16
	ldr	r0, [r5, #8]
.Ltmp670:
.LBB5_5:                                @   in Loop: Header=BB5_2 Depth=1
	@DEBUG_VALUE: ~Fft:this <- %R4
	.loc	5 122 46 discriminator 3 @ /root/Bela/projects/frek_domen_filtriranje/render.cpp:122:46
	add	r6, r6, #1
.Ltmp671:
	@DEBUG_VALUE: i <- %R6
	.loc	5 122 2 is_stmt 0 discriminator 1 @ /root/Bela/projects/frek_domen_filtriranje/render.cpp:122:2
	cmp	r6, r1
	blo	.LBB5_2
.Ltmp672:
.LBB5_6:                                @ %._crit_edge
	.loc	5 125 5 is_stmt 1       @ /root/Bela/projects/frek_domen_filtriranje/render.cpp:125:5
	cmp	r0, #0
	.loc	5 126 1                 @ /root/Bela/projects/frek_domen_filtriranje/render.cpp:126:1
	popeq	{r4, r5, r6, r10, r11, pc}
	.loc	5 125 5 discriminator 1 @ /root/Bela/projects/frek_domen_filtriranje/render.cpp:125:5
	pop	{r4, r5, r6, r10, r11, lr}
	b	_ZdaPv
.LBB5_7:
.Ltmp673:
	@DEBUG_VALUE: ~Fft:this <- %R4
.Ltmp652:
.Ltmp674:
	.loc	16 16 10 discriminator 2 @ ./libraries/Fft/Fft.h:16:10
	mov	lr, pc
	b	__clang_call_terminate
.Ltmp675:
.Lfunc_end5:
	.size	cleanup, .Lfunc_end5-cleanup
	.cfi_endproc
	.globl	__gxx_personality_v0
	.personality __gxx_personality_v0
	.handlerdata
	.p2align	2
GCC_except_table5:
.Lexception2:
	.byte	255                     @ @LPStart Encoding = omit
	.byte	0                       @ @TType Encoding = absptr
	.byte	21                      @ @TType base offset
	.byte	3                       @ Call site Encoding = udata4
	.byte	13                      @ Call site table length
	.long	.Ltmp650-.Lfunc_begin5  @ >> Call Site 1 <<
	.long	.Ltmp651-.Ltmp650       @   Call between .Ltmp650 and .Ltmp651
	.long	.Ltmp652-.Lfunc_begin5  @     jumps to .Ltmp652
	.byte	1                       @   On action: 1
	.byte	1                       @ >> Action Record 1 <<
                                        @   Catch TypeInfo 1
	.byte	0                       @   No further actions
                                        @ >> Catch TypeInfos <<
	.long	0                       @ TypeInfo 1
	.p2align	2
	.fnend

	.section	.text.__clang_call_terminate,"axG",%progbits,__clang_call_terminate,comdat
	.hidden	__clang_call_terminate
	.weak	__clang_call_terminate
	.p2align	2
	.type	__clang_call_terminate,%function
__clang_call_terminate:                 @ @__clang_call_terminate
.Lfunc_begin6:
	.fnstart
	.cfi_startproc
@ BB#0:
	.save	{r11, lr}
	push	{r11, lr}
.Ltmp676:
	.cfi_def_cfa_offset 8
.Ltmp677:
	.cfi_offset lr, -4
.Ltmp678:
	.cfi_offset r11, -8
	bl	__cxa_begin_catch
	mov	lr, pc
	b	_ZSt9terminatev
.Lfunc_end6:
	.size	__clang_call_terminate, .Lfunc_end6-__clang_call_terminate
	.cfi_endproc
	.cantunwind
	.fnend

	.section	.text._ZNSt22__uninitialized_fill_nILb0EE15__uninit_fill_nIPSt6vectorIfSaIfEEjS4_EET_S6_T0_RKT1_,"axG",%progbits,_ZNSt22__uninitialized_fill_nILb0EE15__uninit_fill_nIPSt6vectorIfSaIfEEjS4_EET_S6_T0_RKT1_,comdat
	.weak	_ZNSt22__uninitialized_fill_nILb0EE15__uninit_fill_nIPSt6vectorIfSaIfEEjS4_EET_S6_T0_RKT1_
	.p2align	2
	.type	_ZNSt22__uninitialized_fill_nILb0EE15__uninit_fill_nIPSt6vectorIfSaIfEEjS4_EET_S6_T0_RKT1_,%function
_ZNSt22__uninitialized_fill_nILb0EE15__uninit_fill_nIPSt6vectorIfSaIfEEjS4_EET_S6_T0_RKT1_: @ @_ZNSt22__uninitialized_fill_nILb0EE15__uninit_fill_nIPSt6vectorIfSaIfEEjS4_EET_S6_T0_RKT1_
.Lfunc_begin7:
	.loc	58 197 0                @ /usr/bin/../lib/gcc/arm-linux-gnueabihf/6.3.0/../../../../include/c++/6.3.0/bits/stl_uninitialized.h:197:0
	.fnstart
	.cfi_startproc
@ BB#0:
	.save	{r4, r5, r6, r7, r8, r9, r10, r11, lr}
	push	{r4, r5, r6, r7, r8, r9, r10, r11, lr}
.Ltmp691:
	.cfi_def_cfa_offset 36
.Ltmp692:
	.cfi_offset lr, -4
.Ltmp693:
	.cfi_offset r11, -8
.Ltmp694:
	.cfi_offset r10, -12
.Ltmp695:
	.cfi_offset r9, -16
.Ltmp696:
	.cfi_offset r8, -20
.Ltmp697:
	.cfi_offset r7, -24
.Ltmp698:
	.cfi_offset r6, -28
.Ltmp699:
	.cfi_offset r5, -32
.Ltmp700:
	.cfi_offset r4, -36
	.setfp	r11, sp, #28
	add	r11, sp, #28
.Ltmp701:
	.cfi_def_cfa r11, 8
	.pad	#4
	sub	sp, sp, #4
	@DEBUG_VALUE: __uninit_fill_n<std::vector<float, std::allocator<float> > *, unsigned int, std::vector<float, std::allocator<float> > >:__first <- %R0
	@DEBUG_VALUE: __uninit_fill_n<std::vector<float, std::allocator<float> > *, unsigned int, std::vector<float, std::allocator<float> > >:__n <- %R1
	@DEBUG_VALUE: __uninit_fill_n<std::vector<float, std::allocator<float> > *, unsigned int, std::vector<float, std::allocator<float> > >:__x <- %R2
.Ltmp702:
	@DEBUG_VALUE: __uninit_fill_n<std::vector<float, std::allocator<float> > *, unsigned int, std::vector<float, std::allocator<float> > >:__cur <- %R0
	mov	r6, r1
.Ltmp703:
	@DEBUG_VALUE: __uninit_fill_n<std::vector<float, std::allocator<float> > *, unsigned int, std::vector<float, std::allocator<float> > >:__n <- %R6
	mov	r7, r2
.Ltmp704:
	@DEBUG_VALUE: __uninit_fill_n<std::vector<float, std::allocator<float> > *, unsigned int, std::vector<float, std::allocator<float> > >:__x <- %R7
	mov	r4, r0
.Ltmp705:
	@DEBUG_VALUE: __uninit_fill_n<std::vector<float, std::allocator<float> > *, unsigned int, std::vector<float, std::allocator<float> > >:__cur <- %R4
	@DEBUG_VALUE: __uninit_fill_n<std::vector<float, std::allocator<float> > *, unsigned int, std::vector<float, std::allocator<float> > >:__first <- %R4
	.loc	58 201 8 prologue_end discriminator 1 @ /usr/bin/../lib/gcc/arm-linux-gnueabihf/6.3.0/../../../../include/c++/6.3.0/bits/stl_uninitialized.h:201:8
	cmp	r6, #0
	beq	.LBB7_9
.Ltmp706:
@ BB#1:                                 @ %.lr.ph
	@DEBUG_VALUE: __uninit_fill_n<std::vector<float, std::allocator<float> > *, unsigned int, std::vector<float, std::allocator<float> > >:__first <- %R4
	@DEBUG_VALUE: __uninit_fill_n<std::vector<float, std::allocator<float> > *, unsigned int, std::vector<float, std::allocator<float> > >:__cur <- %R4
	@DEBUG_VALUE: __uninit_fill_n<std::vector<float, std::allocator<float> > *, unsigned int, std::vector<float, std::allocator<float> > >:__x <- %R7
	@DEBUG_VALUE: __uninit_fill_n<std::vector<float, std::allocator<float> > *, unsigned int, std::vector<float, std::allocator<float> > >:__n <- %R6
	.loc	11 656 66               @ /usr/bin/../lib/gcc/arm-linux-gnueabihf/6.3.0/../../../../include/c++/6.3.0/bits/stl_vector.h:656:66
	ldr	r9, [r7]
	mov	r8, #0
	str	r7, [sp]                @ 4-byte Spill
.Ltmp707:
.LBB7_2:                                @ =>This Inner Loop Header: Depth=1
	@DEBUG_VALUE: __uninit_fill_n<std::vector<float, std::allocator<float> > *, unsigned int, std::vector<float, std::allocator<float> > >:__n <- %R6
	@DEBUG_VALUE: size:this <- %R7
	.loc	11 656 40 is_stmt 0     @ /usr/bin/../lib/gcc/arm-linux-gnueabihf/6.3.0/../../../../include/c++/6.3.0/bits/stl_vector.h:656:40
	ldr	r0, [r7, #4]
.Ltmp708:
	.loc	11 91 25 is_stmt 1      @ /usr/bin/../lib/gcc/arm-linux-gnueabihf/6.3.0/../../../../include/c++/6.3.0/bits/stl_vector.h:91:25
	mov	r10, r4
	mov	r1, #0
.Ltmp709:
	.loc	11 170 9 discriminator 3 @ /usr/bin/../lib/gcc/arm-linux-gnueabihf/6.3.0/../../../../include/c++/6.3.0/bits/stl_vector.h:170:9
	mov	r5, #0
.Ltmp710:
	.loc	11 656 50               @ /usr/bin/../lib/gcc/arm-linux-gnueabihf/6.3.0/../../../../include/c++/6.3.0/bits/stl_vector.h:656:50
	sub	r0, r0, r9
.Ltmp711:
	.loc	11 91 25                @ /usr/bin/../lib/gcc/arm-linux-gnueabihf/6.3.0/../../../../include/c++/6.3.0/bits/stl_vector.h:91:25
	str	r1, [r10, -r8]!
.Ltmp712:
	.loc	11 656 50               @ /usr/bin/../lib/gcc/arm-linux-gnueabihf/6.3.0/../../../../include/c++/6.3.0/bits/stl_vector.h:656:50
	asr	r9, r0, #2
.Ltmp713:
	@DEBUG_VALUE: _Vector_base:__n <- %R9
	@DEBUG_VALUE: _M_create_storage:__n <- %R9
	@DEBUG_VALUE: _M_allocate:__n <- %R9
	@DEBUG_VALUE: allocate:__n <- %R9
	@DEBUG_VALUE: allocate:__n <- %R9
	.loc	11 91 37                @ /usr/bin/../lib/gcc/arm-linux-gnueabihf/6.3.0/../../../../include/c++/6.3.0/bits/stl_vector.h:91:37
	str	r1, [r10, #4]
	.loc	11 91 50 is_stmt 0      @ /usr/bin/../lib/gcc/arm-linux-gnueabihf/6.3.0/../../../../include/c++/6.3.0/bits/stl_vector.h:91:50
	str	r1, [r10, #8]
.Ltmp714:
	.loc	11 170 9 is_stmt 1      @ /usr/bin/../lib/gcc/arm-linux-gnueabihf/6.3.0/../../../../include/c++/6.3.0/bits/stl_vector.h:170:9
	cmp	r1, r0, asr #2
	beq	.LBB7_5
.Ltmp715:
@ BB#3:                                 @   in Loop: Header=BB7_2 Depth=1
	@DEBUG_VALUE: allocate:__n <- %R9
	@DEBUG_VALUE: allocate:__n <- %R9
	@DEBUG_VALUE: _M_allocate:__n <- %R9
	@DEBUG_VALUE: _M_create_storage:__n <- %R9
	@DEBUG_VALUE: _Vector_base:__n <- %R9
	@DEBUG_VALUE: size:this <- %R7
	@DEBUG_VALUE: __uninit_fill_n<std::vector<float, std::allocator<float> > *, unsigned int, std::vector<float, std::allocator<float> > >:__n <- %R6
	.loc	7 101 6                 @ /usr/bin/../lib/gcc/arm-linux-gnueabihf/6.3.0/../../../../include/c++/6.3.0/ext/new_allocator.h:101:6
	cmp	r9, #1073741824
	bhs	.LBB7_10
.Ltmp716:
@ BB#4:                                 @ %_ZNSt16allocator_traitsISaIfEE8allocateERS0_j.exit.i.i.i.i.i
                                        @   in Loop: Header=BB7_2 Depth=1
	@DEBUG_VALUE: allocate:__n <- %R9
	@DEBUG_VALUE: allocate:__n <- %R9
	@DEBUG_VALUE: _M_allocate:__n <- %R9
	@DEBUG_VALUE: _M_create_storage:__n <- %R9
	@DEBUG_VALUE: _Vector_base:__n <- %R9
	@DEBUG_VALUE: size:this <- %R7
	@DEBUG_VALUE: __uninit_fill_n<std::vector<float, std::allocator<float> > *, unsigned int, std::vector<float, std::allocator<float> > >:__n <- %R6
	.loc	7 104 27                @ /usr/bin/../lib/gcc/arm-linux-gnueabihf/6.3.0/../../../../include/c++/6.3.0/ext/new_allocator.h:104:27
.Ltmp679:
	bl	_Znwj
	mov	r5, r0
.Ltmp680:
.Ltmp717:
.LBB7_5:                                @   in Loop: Header=BB7_2 Depth=1
	@DEBUG_VALUE: allocate:__n <- %R9
	@DEBUG_VALUE: allocate:__n <- %R9
	@DEBUG_VALUE: _M_allocate:__n <- %R9
	@DEBUG_VALUE: _M_create_storage:__n <- %R9
	@DEBUG_VALUE: _Vector_base:__n <- %R9
	@DEBUG_VALUE: size:this <- %R7
	@DEBUG_VALUE: __uninit_fill_n<std::vector<float, std::allocator<float> > *, unsigned int, std::vector<float, std::allocator<float> > >:__n <- %R6
	@DEBUG_VALUE: __uninitialized_copy_a<__gnu_cxx::__normal_iterator<const float *, std::vector<float, std::allocator<float> > >, float *, float>:__result <- %R5
	.loc	11 185 25               @ /usr/bin/../lib/gcc/arm-linux-gnueabihf/6.3.0/../../../../include/c++/6.3.0/bits/stl_vector.h:185:25
	str	r5, [r10]
	.loc	11 187 59               @ /usr/bin/../lib/gcc/arm-linux-gnueabihf/6.3.0/../../../../include/c++/6.3.0/bits/stl_vector.h:187:59
	add	r0, r5, r9, lsl #2
.Ltmp718:
	@DEBUG_VALUE: __copy_move_a<false, const float *, float *>:__simple <- 1
	@DEBUG_VALUE: uninitialized_copy<__gnu_cxx::__normal_iterator<const float *, std::vector<float, std::allocator<float> > >, float *>:__assignable <- 1
	@DEBUG_VALUE: end:this <- %R7
	.loc	11 186 26               @ /usr/bin/../lib/gcc/arm-linux-gnueabihf/6.3.0/../../../../include/c++/6.3.0/bits/stl_vector.h:186:26
	str	r5, [r10, #4]
	.loc	11 187 34               @ /usr/bin/../lib/gcc/arm-linux-gnueabihf/6.3.0/../../../../include/c++/6.3.0/bits/stl_vector.h:187:34
	str	r0, [r10, #8]
.Ltmp719:
	.loc	11 558 45               @ /usr/bin/../lib/gcc/arm-linux-gnueabihf/6.3.0/../../../../include/c++/6.3.0/bits/stl_vector.h:558:45
	ldr	r9, [r7]
.Ltmp720:
	@DEBUG_VALUE: end:this <- [%SP+0]
	.loc	11 576 45               @ /usr/bin/../lib/gcc/arm-linux-gnueabihf/6.3.0/../../../../include/c++/6.3.0/bits/stl_vector.h:576:45
	ldr	r0, [r7, #4]
.Ltmp721:
	.loc	55 366 34               @ /usr/bin/../lib/gcc/arm-linux-gnueabihf/6.3.0/../../../../include/c++/6.3.0/bits/stl_algobase.h:366:34
	sub	r2, r0, r9
	mov	r0, #0
	asr	r7, r2, #2
.Ltmp722:
	@DEBUG_VALUE: __copy_m<float>:_Num <- %R7
	.loc	55 367 8                @ /usr/bin/../lib/gcc/arm-linux-gnueabihf/6.3.0/../../../../include/c++/6.3.0/bits/stl_algobase.h:367:8
	cmp	r0, r2, asr #2
	beq	.LBB7_7
.Ltmp723:
@ BB#6:                                 @   in Loop: Header=BB7_2 Depth=1
	@DEBUG_VALUE: __copy_m<float>:_Num <- %R7
	@DEBUG_VALUE: end:this <- [%SP+0]
	@DEBUG_VALUE: __uninitialized_copy_a<__gnu_cxx::__normal_iterator<const float *, std::vector<float, std::allocator<float> > >, float *, float>:__result <- %R5
	@DEBUG_VALUE: __uninit_fill_n<std::vector<float, std::allocator<float> > *, unsigned int, std::vector<float, std::allocator<float> > >:__n <- %R6
	.loc	55 368 6                @ /usr/bin/../lib/gcc/arm-linux-gnueabihf/6.3.0/../../../../include/c++/6.3.0/bits/stl_algobase.h:368:6
	mov	r0, r5
	mov	r1, r9
	bl	memmove
.Ltmp724:
.LBB7_7:                                @   in Loop: Header=BB7_2 Depth=1
	@DEBUG_VALUE: __copy_m<float>:_Num <- %R7
	@DEBUG_VALUE: __uninitialized_copy_a<__gnu_cxx::__normal_iterator<const float *, std::vector<float, std::allocator<float> > >, float *, float>:__result <- %R5
	@DEBUG_VALUE: __uninit_fill_n<std::vector<float, std::allocator<float> > *, unsigned int, std::vector<float, std::allocator<float> > >:__n <- %R6
	.loc	55 369 20               @ /usr/bin/../lib/gcc/arm-linux-gnueabihf/6.3.0/../../../../include/c++/6.3.0/bits/stl_algobase.h:369:20
	add	r0, r5, r7, lsl #2
.Ltmp725:
	.loc	11 323 33 discriminator 1 @ /usr/bin/../lib/gcc/arm-linux-gnueabihf/6.3.0/../../../../include/c++/6.3.0/bits/stl_vector.h:323:33
	str	r0, [r10, #4]
	ldr	r7, [sp]                @ 4-byte Reload
.Ltmp726:
	.loc	58 201 19 discriminator 1 @ /usr/bin/../lib/gcc/arm-linux-gnueabihf/6.3.0/../../../../include/c++/6.3.0/bits/stl_uninitialized.h:201:19
	sub	r8, r8, #12
	.loc	58 201 24 is_stmt 0 discriminator 2 @ /usr/bin/../lib/gcc/arm-linux-gnueabihf/6.3.0/../../../../include/c++/6.3.0/bits/stl_uninitialized.h:201:24
	subs	r6, r6, #1
.Ltmp727:
	@DEBUG_VALUE: __uninit_fill_n<std::vector<float, std::allocator<float> > *, unsigned int, std::vector<float, std::allocator<float> > >:__n <- %R6
	bne	.LBB7_2
.Ltmp728:
@ BB#8:                                 @ %._crit_edge.loopexit
	@DEBUG_VALUE: __uninitialized_copy_a<__gnu_cxx::__normal_iterator<const float *, std::vector<float, std::allocator<float> > >, float *, float>:__result <- %R5
	@DEBUG_VALUE: __uninit_fill_n<std::vector<float, std::allocator<float> > *, unsigned int, std::vector<float, std::allocator<float> > >:__n <- %R6
	.loc	58 203 8 is_stmt 1      @ /usr/bin/../lib/gcc/arm-linux-gnueabihf/6.3.0/../../../../include/c++/6.3.0/bits/stl_uninitialized.h:203:8
	sub	r4, r4, r8
.Ltmp729:
	@DEBUG_VALUE: __destroy<std::vector<float, std::allocator<float> > *>:__first <- %R4
.LBB7_9:                                @ %._crit_edge
	@DEBUG_VALUE: __uninit_fill_n<std::vector<float, std::allocator<float> > *, unsigned int, std::vector<float, std::allocator<float> > >:__n <- %R6
	mov	r0, r4
	sub	sp, r11, #28
	pop	{r4, r5, r6, r7, r8, r9, r10, r11, pc}
.Ltmp730:
.LBB7_10:                               @ %.noexc.i.i.i
	@DEBUG_VALUE: allocate:__n <- %R9
	@DEBUG_VALUE: allocate:__n <- %R9
	@DEBUG_VALUE: _M_allocate:__n <- %R9
	@DEBUG_VALUE: _M_create_storage:__n <- %R9
	@DEBUG_VALUE: _Vector_base:__n <- %R9
	@DEBUG_VALUE: size:this <- %R7
	@DEBUG_VALUE: __uninit_fill_n<std::vector<float, std::allocator<float> > *, unsigned int, std::vector<float, std::allocator<float> > >:__n <- %R6
	.loc	7 102 4                 @ /usr/bin/../lib/gcc/arm-linux-gnueabihf/6.3.0/../../../../include/c++/6.3.0/ext/new_allocator.h:102:4
.Ltmp682:
	mov	lr, pc
	b	_ZSt17__throw_bad_allocv
.Ltmp683:
.Ltmp731:
@ BB#11:                                @ %.noexc
	@DEBUG_VALUE: allocate:__n <- %R9
	@DEBUG_VALUE: allocate:__n <- %R9
	@DEBUG_VALUE: _M_allocate:__n <- %R9
	@DEBUG_VALUE: _M_create_storage:__n <- %R9
	@DEBUG_VALUE: _Vector_base:__n <- %R9
	@DEBUG_VALUE: size:this <- %R7
	@DEBUG_VALUE: __uninit_fill_n<std::vector<float, std::allocator<float> > *, unsigned int, std::vector<float, std::allocator<float> > >:__n <- %R6
.LBB7_12:                               @ %.loopexit.split-lp
	@DEBUG_VALUE: allocate:__n <- %R9
	@DEBUG_VALUE: allocate:__n <- %R9
	@DEBUG_VALUE: _M_allocate:__n <- %R9
	@DEBUG_VALUE: _M_create_storage:__n <- %R9
	@DEBUG_VALUE: _Vector_base:__n <- %R9
	@DEBUG_VALUE: size:this <- %R7
	@DEBUG_VALUE: __uninit_fill_n<std::vector<float, std::allocator<float> > *, unsigned int, std::vector<float, std::allocator<float> > >:__n <- %R6
.Ltmp684:
	b	.LBB7_14
.Ltmp732:
.LBB7_13:                               @ %.loopexit
	@DEBUG_VALUE: allocate:__n <- %R9
	@DEBUG_VALUE: allocate:__n <- %R9
	@DEBUG_VALUE: _M_allocate:__n <- %R9
	@DEBUG_VALUE: _M_create_storage:__n <- %R9
	@DEBUG_VALUE: _Vector_base:__n <- %R9
	@DEBUG_VALUE: size:this <- %R7
	@DEBUG_VALUE: __uninit_fill_n<std::vector<float, std::allocator<float> > *, unsigned int, std::vector<float, std::allocator<float> > >:__n <- %R6
.Ltmp681:
.Ltmp733:
.LBB7_14:
	@DEBUG_VALUE: allocate:__n <- %R9
	@DEBUG_VALUE: allocate:__n <- %R9
	@DEBUG_VALUE: _M_allocate:__n <- %R9
	@DEBUG_VALUE: _M_create_storage:__n <- %R9
	@DEBUG_VALUE: _Vector_base:__n <- %R9
	@DEBUG_VALUE: size:this <- %R7
	@DEBUG_VALUE: __uninit_fill_n<std::vector<float, std::allocator<float> > *, unsigned int, std::vector<float, std::allocator<float> > >:__n <- %R6
	.loc	58 204 6                @ /usr/bin/../lib/gcc/arm-linux-gnueabihf/6.3.0/../../../../include/c++/6.3.0/bits/stl_uninitialized.h:204:6
	bl	__cxa_begin_catch
.Ltmp734:
	.loc	46 102 4 discriminator 1 @ /usr/bin/../lib/gcc/arm-linux-gnueabihf/6.3.0/../../../../include/c++/6.3.0/bits/stl_construct.h:102:4
	cmp	r8, #0
	beq	.LBB7_19
.Ltmp735:
@ BB#15:                                @ %.lr.ph.i.i.preheader
	@DEBUG_VALUE: allocate:__n <- %R9
	@DEBUG_VALUE: allocate:__n <- %R9
	@DEBUG_VALUE: _M_allocate:__n <- %R9
	@DEBUG_VALUE: _M_create_storage:__n <- %R9
	@DEBUG_VALUE: _Vector_base:__n <- %R9
	@DEBUG_VALUE: size:this <- %R7
	@DEBUG_VALUE: __uninit_fill_n<std::vector<float, std::allocator<float> > *, unsigned int, std::vector<float, std::allocator<float> > >:__n <- %R6
	rsb	r5, r8, #0
.Ltmp736:
.LBB7_16:                               @ %.lr.ph.i.i
                                        @ =>This Inner Loop Header: Depth=1
	@DEBUG_VALUE: __addressof<std::vector<float, std::allocator<float> > >:__r <- %R4
	.loc	11 160 37               @ /usr/bin/../lib/gcc/arm-linux-gnueabihf/6.3.0/../../../../include/c++/6.3.0/bits/stl_vector.h:160:37
	ldr	r0, [r4]
.Ltmp737:
	@DEBUG_VALUE: _M_deallocate:__p <- %R0
	@DEBUG_VALUE: deallocate:__p <- %R0
	@DEBUG_VALUE: deallocate:__p <- %R0
	.loc	11 177 6                @ /usr/bin/../lib/gcc/arm-linux-gnueabihf/6.3.0/../../../../include/c++/6.3.0/bits/stl_vector.h:177:6
	cmp	r0, #0
	beq	.LBB7_18
.Ltmp738:
@ BB#17:                                @   in Loop: Header=BB7_16 Depth=1
	@DEBUG_VALUE: deallocate:__p <- %R0
	@DEBUG_VALUE: deallocate:__p <- %R0
	@DEBUG_VALUE: _M_deallocate:__p <- %R0
	@DEBUG_VALUE: __addressof<std::vector<float, std::allocator<float> > >:__r <- %R4
	.loc	7 110 9                 @ /usr/bin/../lib/gcc/arm-linux-gnueabihf/6.3.0/../../../../include/c++/6.3.0/ext/new_allocator.h:110:9
	bl	_ZdlPv
.Ltmp739:
.LBB7_18:                               @ %_ZSt8_DestroyISt6vectorIfSaIfEEEvPT_.exit.i.i
                                        @   in Loop: Header=BB7_16 Depth=1
	@DEBUG_VALUE: __addressof<std::vector<float, std::allocator<float> > >:__r <- %R4
	.loc	46 102 19 discriminator 1 @ /usr/bin/../lib/gcc/arm-linux-gnueabihf/6.3.0/../../../../include/c++/6.3.0/bits/stl_construct.h:102:19
	subs	r5, r5, #12
	.loc	46 102 30 is_stmt 0 discriminator 2 @ /usr/bin/../lib/gcc/arm-linux-gnueabihf/6.3.0/../../../../include/c++/6.3.0/bits/stl_construct.h:102:30
	add	r4, r4, #12
.Ltmp740:
	@DEBUG_VALUE: __destroy<std::vector<float, std::allocator<float> > *>:__first <- %R4
	bne	.LBB7_16
.Ltmp741:
.LBB7_19:                               @ %_ZSt8_DestroyIPSt6vectorIfSaIfEEEvT_S4_.exit
	.loc	58 208 8 is_stmt 1      @ /usr/bin/../lib/gcc/arm-linux-gnueabihf/6.3.0/../../../../include/c++/6.3.0/bits/stl_uninitialized.h:208:8
.Ltmp685:
	mov	lr, pc
	b	__cxa_rethrow
.Ltmp686:
@ BB#20:
.LBB7_21:
.Ltmp687:
	mov	r4, r0
	.loc	58 209 6                @ /usr/bin/../lib/gcc/arm-linux-gnueabihf/6.3.0/../../../../include/c++/6.3.0/bits/stl_uninitialized.h:209:6
.Ltmp688:
	bl	__cxa_end_catch
.Ltmp689:
@ BB#22:
	mov	r0, r4
	mov	lr, pc
	b	_Unwind_Resume
.LBB7_23:
.Ltmp690:
	.loc	58 209 6 is_stmt 0 discriminator 2 @ /usr/bin/../lib/gcc/arm-linux-gnueabihf/6.3.0/../../../../include/c++/6.3.0/bits/stl_uninitialized.h:209:6
	mov	lr, pc
	b	__clang_call_terminate
.Ltmp742:
.Lfunc_end7:
	.size	_ZNSt22__uninitialized_fill_nILb0EE15__uninit_fill_nIPSt6vectorIfSaIfEEjS4_EET_S6_T0_RKT1_, .Lfunc_end7-_ZNSt22__uninitialized_fill_nILb0EE15__uninit_fill_nIPSt6vectorIfSaIfEEjS4_EET_S6_T0_RKT1_
	.cfi_endproc
	.globl	__gxx_personality_v0
	.personality __gxx_personality_v0
	.handlerdata
	.p2align	2
GCC_except_table7:
.Lexception3:
	.byte	255                     @ @LPStart Encoding = omit
	.byte	0                       @ @TType Encoding = absptr
	.asciz	"\343\200"              @ @TType base offset
	.byte	3                       @ Call site Encoding = udata4
	.byte	91                      @ Call site table length
	.long	.Ltmp679-.Lfunc_begin7  @ >> Call Site 1 <<
	.long	.Ltmp680-.Ltmp679       @   Call between .Ltmp679 and .Ltmp680
	.long	.Ltmp681-.Lfunc_begin7  @     jumps to .Ltmp681
	.byte	1                       @   On action: 1
	.long	.Ltmp680-.Lfunc_begin7  @ >> Call Site 2 <<
	.long	.Ltmp682-.Ltmp680       @   Call between .Ltmp680 and .Ltmp682
	.long	0                       @     has no landing pad
	.byte	0                       @   On action: cleanup
	.long	.Ltmp682-.Lfunc_begin7  @ >> Call Site 3 <<
	.long	.Ltmp683-.Ltmp682       @   Call between .Ltmp682 and .Ltmp683
	.long	.Ltmp684-.Lfunc_begin7  @     jumps to .Ltmp684
	.byte	1                       @   On action: 1
	.long	.Ltmp683-.Lfunc_begin7  @ >> Call Site 4 <<
	.long	.Ltmp685-.Ltmp683       @   Call between .Ltmp683 and .Ltmp685
	.long	0                       @     has no landing pad
	.byte	0                       @   On action: cleanup
	.long	.Ltmp685-.Lfunc_begin7  @ >> Call Site 5 <<
	.long	.Ltmp686-.Ltmp685       @   Call between .Ltmp685 and .Ltmp686
	.long	.Ltmp687-.Lfunc_begin7  @     jumps to .Ltmp687
	.byte	0                       @   On action: cleanup
	.long	.Ltmp688-.Lfunc_begin7  @ >> Call Site 6 <<
	.long	.Ltmp689-.Ltmp688       @   Call between .Ltmp688 and .Ltmp689
	.long	.Ltmp690-.Lfunc_begin7  @     jumps to .Ltmp690
	.byte	1                       @   On action: 1
	.long	.Ltmp689-.Lfunc_begin7  @ >> Call Site 7 <<
	.long	.Lfunc_end7-.Ltmp689    @   Call between .Ltmp689 and .Lfunc_end7
	.long	0                       @     has no landing pad
	.byte	0                       @   On action: cleanup
	.byte	1                       @ >> Action Record 1 <<
                                        @   Catch TypeInfo 1
	.byte	0                       @   No further actions
                                        @ >> Catch TypeInfos <<
	.long	0                       @ TypeInfo 1
	.p2align	2
	.fnend

	.section	.text._ZNSt6vectorIS_IfSaIfEESaIS1_EE19_M_emplace_back_auxIJRKS1_EEEvDpOT_,"axG",%progbits,_ZNSt6vectorIS_IfSaIfEESaIS1_EE19_M_emplace_back_auxIJRKS1_EEEvDpOT_,comdat
	.weak	_ZNSt6vectorIS_IfSaIfEESaIS1_EE19_M_emplace_back_auxIJRKS1_EEEvDpOT_
	.p2align	2
	.type	_ZNSt6vectorIS_IfSaIfEESaIS1_EE19_M_emplace_back_auxIJRKS1_EEEvDpOT_,%function
_ZNSt6vectorIS_IfSaIfEESaIS1_EE19_M_emplace_back_auxIJRKS1_EEEvDpOT_: @ @_ZNSt6vectorIS_IfSaIfEESaIS1_EE19_M_emplace_back_auxIJRKS1_EEEvDpOT_
.Lfunc_begin8:
	.loc	53 409 0 is_stmt 1      @ /usr/bin/../lib/gcc/arm-linux-gnueabihf/6.3.0/../../../../include/c++/6.3.0/bits/vector.tcc:409:0
	.fnstart
	.cfi_startproc
@ BB#0:                                 @ %_ZNKSt6vectorIS_IfSaIfEESaIS1_EE12_M_check_lenEjPKc.exit
	.save	{r4, r5, r6, r7, r8, r9, r10, r11, lr}
	push	{r4, r5, r6, r7, r8, r9, r10, r11, lr}
.Ltmp754:
	.cfi_def_cfa_offset 36
.Ltmp755:
	.cfi_offset lr, -4
.Ltmp756:
	.cfi_offset r11, -8
.Ltmp757:
	.cfi_offset r10, -12
.Ltmp758:
	.cfi_offset r9, -16
.Ltmp759:
	.cfi_offset r8, -20
.Ltmp760:
	.cfi_offset r7, -24
.Ltmp761:
	.cfi_offset r6, -28
.Ltmp762:
	.cfi_offset r5, -32
.Ltmp763:
	.cfi_offset r4, -36
	.setfp	r11, sp, #28
	add	r11, sp, #28
.Ltmp764:
	.cfi_def_cfa r11, 8
	.pad	#12
	sub	sp, sp, #12
	@DEBUG_VALUE: _M_emplace_back_aux<const std::vector<float, std::allocator<float> > &>:this <- %R0
	@DEBUG_VALUE: _M_emplace_back_aux<const std::vector<float, std::allocator<float> > &>:__args <- %R1
	mov	r4, r0
.Ltmp765:
	@DEBUG_VALUE: size:this <- %R4
	@DEBUG_VALUE: _M_check_len:__n <- 1
	@DEBUG_VALUE: _M_check_len:this <- %R4
	@DEBUG_VALUE: _M_emplace_back_aux<const std::vector<float, std::allocator<float> > &>:this <- %R4
	mov	r10, r1
.Ltmp766:
	@DEBUG_VALUE: _M_emplace_back_aux<const std::vector<float, std::allocator<float> > &>:__args <- %R10
	.loc	11 656 66 prologue_end  @ /usr/bin/../lib/gcc/arm-linux-gnueabihf/6.3.0/../../../../include/c++/6.3.0/bits/stl_vector.h:656:66
	ldr	r6, [r4]
	.loc	11 656 50 is_stmt 0     @ /usr/bin/../lib/gcc/arm-linux-gnueabihf/6.3.0/../../../../include/c++/6.3.0/bits/stl_vector.h:656:50
	movw	r3, #43691
	.loc	11 656 40               @ /usr/bin/../lib/gcc/arm-linux-gnueabihf/6.3.0/../../../../include/c++/6.3.0/bits/stl_vector.h:656:40
	ldr	r2, [r4, #4]
	.loc	11 656 50               @ /usr/bin/../lib/gcc/arm-linux-gnueabihf/6.3.0/../../../../include/c++/6.3.0/bits/stl_vector.h:656:50
	movt	r3, #43690
.Ltmp767:
	.loc	11 170 9 is_stmt 1 discriminator 3 @ /usr/bin/../lib/gcc/arm-linux-gnueabihf/6.3.0/../../../../include/c++/6.3.0/bits/stl_vector.h:170:9
	mov	r0, #0
.Ltmp768:
	.loc	11 656 50               @ /usr/bin/../lib/gcc/arm-linux-gnueabihf/6.3.0/../../../../include/c++/6.3.0/bits/stl_vector.h:656:50
	subs	r1, r2, r6
	asr	r1, r1, #2
	mul	r7, r1, r3
.Ltmp769:
	@DEBUG_VALUE: size:this <- %R4
	@DEBUG_VALUE: size:this <- %R4
	.loc	11 1425 35              @ /usr/bin/../lib/gcc/arm-linux-gnueabihf/6.3.0/../../../../include/c++/6.3.0/bits/stl_vector.h:1425:35
	movweq	r7, #1
	mla	r3, r1, r3, r7
	movw	r1, #21845
	movt	r1, #5461
.Ltmp770:
	@DEBUG_VALUE: size:this <- %R4
	.loc	11 1426 25              @ /usr/bin/../lib/gcc/arm-linux-gnueabihf/6.3.0/../../../../include/c++/6.3.0/bits/stl_vector.h:1426:25
	cmp	r3, r1
	mov	r5, r3
	movwhi	r5, #21845
	movthi	r5, #5461
	cmp	r3, r7
	movlo	r5, r1
.Ltmp771:
	@DEBUG_VALUE: _M_allocate:__n <- %R5
	@DEBUG_VALUE: _M_emplace_back_aux<const std::vector<float, std::allocator<float> > &>:__len <- %R5
	@DEBUG_VALUE: allocate:__n <- %R5
	@DEBUG_VALUE: allocate:__n <- %R5
	@DEBUG_VALUE: _M_deallocate:__n <- %R5
	@DEBUG_VALUE: deallocate:__n <- %R5
	@DEBUG_VALUE: deallocate: <- %R5
	mov	r7, #0
.Ltmp772:
	.loc	11 170 9                @ /usr/bin/../lib/gcc/arm-linux-gnueabihf/6.3.0/../../../../include/c++/6.3.0/bits/stl_vector.h:170:9
	cmp	r5, #0
.Ltmp773:
	@DEBUG_VALUE: _M_check_len:__len <- %R3
	beq	.LBB8_3
.Ltmp774:
@ BB#1:
	@DEBUG_VALUE: _M_check_len:__len <- %R3
	@DEBUG_VALUE: deallocate: <- %R5
	@DEBUG_VALUE: deallocate:__n <- %R5
	@DEBUG_VALUE: _M_deallocate:__n <- %R5
	@DEBUG_VALUE: allocate:__n <- %R5
	@DEBUG_VALUE: allocate:__n <- %R5
	@DEBUG_VALUE: _M_emplace_back_aux<const std::vector<float, std::allocator<float> > &>:__len <- %R5
	@DEBUG_VALUE: _M_allocate:__n <- %R5
	@DEBUG_VALUE: size:this <- %R4
	@DEBUG_VALUE: size:this <- %R4
	@DEBUG_VALUE: size:this <- %R4
	@DEBUG_VALUE: _M_emplace_back_aux<const std::vector<float, std::allocator<float> > &>:__args <- %R10
	@DEBUG_VALUE: _M_emplace_back_aux<const std::vector<float, std::allocator<float> > &>:this <- %R4
	@DEBUG_VALUE: _M_check_len:this <- %R4
	@DEBUG_VALUE: size:this <- %R4
	.loc	7 101 6                 @ /usr/bin/../lib/gcc/arm-linux-gnueabihf/6.3.0/../../../../include/c++/6.3.0/ext/new_allocator.h:101:6
	cmp	r5, r1
	bhi	.LBB8_20
.Ltmp775:
@ BB#2:                                 @ %_ZNSt16allocator_traitsISaISt6vectorIfSaIfEEEE8allocateERS3_j.exit.i
	@DEBUG_VALUE: _M_check_len:__len <- %R3
	@DEBUG_VALUE: deallocate: <- %R5
	@DEBUG_VALUE: deallocate:__n <- %R5
	@DEBUG_VALUE: _M_deallocate:__n <- %R5
	@DEBUG_VALUE: allocate:__n <- %R5
	@DEBUG_VALUE: allocate:__n <- %R5
	@DEBUG_VALUE: _M_emplace_back_aux<const std::vector<float, std::allocator<float> > &>:__len <- %R5
	@DEBUG_VALUE: _M_allocate:__n <- %R5
	@DEBUG_VALUE: size:this <- %R4
	@DEBUG_VALUE: size:this <- %R4
	@DEBUG_VALUE: size:this <- %R4
	@DEBUG_VALUE: _M_emplace_back_aux<const std::vector<float, std::allocator<float> > &>:__args <- %R10
	@DEBUG_VALUE: _M_emplace_back_aux<const std::vector<float, std::allocator<float> > &>:this <- %R4
	@DEBUG_VALUE: _M_check_len:this <- %R4
	@DEBUG_VALUE: size:this <- %R4
	.loc	7 104 46                @ /usr/bin/../lib/gcc/arm-linux-gnueabihf/6.3.0/../../../../include/c++/6.3.0/ext/new_allocator.h:104:46
	add	r0, r5, r5, lsl #1
	lsl	r0, r0, #2
	.loc	7 104 27 is_stmt 0      @ /usr/bin/../lib/gcc/arm-linux-gnueabihf/6.3.0/../../../../include/c++/6.3.0/ext/new_allocator.h:104:27
	bl	_Znwj
.Ltmp776:
	.loc	11 656 66 is_stmt 1     @ /usr/bin/../lib/gcc/arm-linux-gnueabihf/6.3.0/../../../../include/c++/6.3.0/bits/stl_vector.h:656:66
	ldr	r6, [r4]
	.loc	11 656 40 is_stmt 0     @ /usr/bin/../lib/gcc/arm-linux-gnueabihf/6.3.0/../../../../include/c++/6.3.0/bits/stl_vector.h:656:40
	ldr	r2, [r4, #4]
.Ltmp777:
.LBB8_3:                                @ %_ZNSt12_Vector_baseISt6vectorIfSaIfEESaIS2_EE11_M_allocateEj.exit
	@DEBUG_VALUE: deallocate: <- %R5
	@DEBUG_VALUE: deallocate:__n <- %R5
	@DEBUG_VALUE: _M_deallocate:__n <- %R5
	@DEBUG_VALUE: allocate:__n <- %R5
	@DEBUG_VALUE: allocate:__n <- %R5
	@DEBUG_VALUE: _M_emplace_back_aux<const std::vector<float, std::allocator<float> > &>:__len <- %R5
	@DEBUG_VALUE: _M_allocate:__n <- %R5
	@DEBUG_VALUE: size:this <- %R4
	@DEBUG_VALUE: size:this <- %R4
	@DEBUG_VALUE: size:this <- %R4
	@DEBUG_VALUE: _M_emplace_back_aux<const std::vector<float, std::allocator<float> > &>:__args <- %R10
	@DEBUG_VALUE: _M_emplace_back_aux<const std::vector<float, std::allocator<float> > &>:this <- %R4
	@DEBUG_VALUE: _M_check_len:this <- %R4
	@DEBUG_VALUE: size:this <- %R4
	@DEBUG_VALUE: size:this <- %R10
	.loc	11 656 50               @ /usr/bin/../lib/gcc/arm-linux-gnueabihf/6.3.0/../../../../include/c++/6.3.0/bits/stl_vector.h:656:50
	sub	r2, r2, r6
	str	r5, [sp, #4]            @ 4-byte Spill
.Ltmp778:
	.loc	11 91 25 is_stmt 1      @ /usr/bin/../lib/gcc/arm-linux-gnueabihf/6.3.0/../../../../include/c++/6.3.0/bits/stl_vector.h:91:25
	mov	r6, r0
.Ltmp779:
	.loc	11 656 66               @ /usr/bin/../lib/gcc/arm-linux-gnueabihf/6.3.0/../../../../include/c++/6.3.0/bits/stl_vector.h:656:66
	ldm	r10, {r1, r3}
	str	r0, [sp, #8]            @ 4-byte Spill
	.loc	11 656 50 is_stmt 0     @ /usr/bin/../lib/gcc/arm-linux-gnueabihf/6.3.0/../../../../include/c++/6.3.0/bits/stl_vector.h:656:50
	sub	r0, r3, r1
.Ltmp780:
	.loc	11 91 25 is_stmt 1      @ /usr/bin/../lib/gcc/arm-linux-gnueabihf/6.3.0/../../../../include/c++/6.3.0/bits/stl_vector.h:91:25
	str	r7, [r6, r2]!
.Ltmp781:
	.loc	11 656 50               @ /usr/bin/../lib/gcc/arm-linux-gnueabihf/6.3.0/../../../../include/c++/6.3.0/bits/stl_vector.h:656:50
	asr	r9, r0, #2
.Ltmp782:
	@DEBUG_VALUE: _Vector_base:__n <- %R9
	@DEBUG_VALUE: _M_create_storage:__n <- %R9
	@DEBUG_VALUE: _M_allocate:__n <- %R9
	@DEBUG_VALUE: allocate:__n <- %R9
	@DEBUG_VALUE: allocate:__n <- %R9
	.loc	11 170 9                @ /usr/bin/../lib/gcc/arm-linux-gnueabihf/6.3.0/../../../../include/c++/6.3.0/bits/stl_vector.h:170:9
	cmp	r7, r0, asr #2
.Ltmp783:
	@DEBUG_VALUE: _M_emplace_back_aux<const std::vector<float, std::allocator<float> > &>:__new_start <- [%SP+8]
	.loc	11 91 37                @ /usr/bin/../lib/gcc/arm-linux-gnueabihf/6.3.0/../../../../include/c++/6.3.0/bits/stl_vector.h:91:37
	mov	r5, r6
.Ltmp784:
	.loc	11 91 50 is_stmt 0      @ /usr/bin/../lib/gcc/arm-linux-gnueabihf/6.3.0/../../../../include/c++/6.3.0/bits/stl_vector.h:91:50
	mov	r8, r6
	.loc	11 91 37                @ /usr/bin/../lib/gcc/arm-linux-gnueabihf/6.3.0/../../../../include/c++/6.3.0/bits/stl_vector.h:91:37
	str	r7, [r5, #4]!
	.loc	11 91 50                @ /usr/bin/../lib/gcc/arm-linux-gnueabihf/6.3.0/../../../../include/c++/6.3.0/bits/stl_vector.h:91:50
	str	r7, [r8, #8]!
	beq	.LBB8_7
.Ltmp785:
@ BB#4:
	@DEBUG_VALUE: _M_emplace_back_aux<const std::vector<float, std::allocator<float> > &>:__new_start <- [%SP+8]
	@DEBUG_VALUE: allocate:__n <- %R9
	@DEBUG_VALUE: allocate:__n <- %R9
	@DEBUG_VALUE: _M_allocate:__n <- %R9
	@DEBUG_VALUE: _M_create_storage:__n <- %R9
	@DEBUG_VALUE: _Vector_base:__n <- %R9
	@DEBUG_VALUE: size:this <- %R10
	@DEBUG_VALUE: size:this <- %R4
	@DEBUG_VALUE: size:this <- %R4
	@DEBUG_VALUE: size:this <- %R4
	@DEBUG_VALUE: _M_emplace_back_aux<const std::vector<float, std::allocator<float> > &>:__args <- %R10
	@DEBUG_VALUE: _M_emplace_back_aux<const std::vector<float, std::allocator<float> > &>:this <- %R4
	@DEBUG_VALUE: _M_check_len:this <- %R4
	@DEBUG_VALUE: size:this <- %R4
	.loc	7 101 6 is_stmt 1       @ /usr/bin/../lib/gcc/arm-linux-gnueabihf/6.3.0/../../../../include/c++/6.3.0/ext/new_allocator.h:101:6
	cmp	r9, #1073741824
	bhs	.LBB8_21
.Ltmp786:
@ BB#5:                                 @ %_ZNSt16allocator_traitsISaIfEE8allocateERS0_j.exit.i.i.i.i.i.i
	@DEBUG_VALUE: _M_emplace_back_aux<const std::vector<float, std::allocator<float> > &>:__new_start <- [%SP+8]
	@DEBUG_VALUE: allocate:__n <- %R9
	@DEBUG_VALUE: allocate:__n <- %R9
	@DEBUG_VALUE: _M_allocate:__n <- %R9
	@DEBUG_VALUE: _M_create_storage:__n <- %R9
	@DEBUG_VALUE: _Vector_base:__n <- %R9
	@DEBUG_VALUE: size:this <- %R10
	@DEBUG_VALUE: size:this <- %R4
	@DEBUG_VALUE: size:this <- %R4
	@DEBUG_VALUE: size:this <- %R4
	@DEBUG_VALUE: _M_emplace_back_aux<const std::vector<float, std::allocator<float> > &>:__args <- %R10
	@DEBUG_VALUE: _M_emplace_back_aux<const std::vector<float, std::allocator<float> > &>:this <- %R4
	@DEBUG_VALUE: _M_check_len:this <- %R4
	@DEBUG_VALUE: size:this <- %R4
	.loc	7 104 27                @ /usr/bin/../lib/gcc/arm-linux-gnueabihf/6.3.0/../../../../include/c++/6.3.0/ext/new_allocator.h:104:27
.Ltmp743:
	bl	_Znwj
.Ltmp787:
	mov	r7, r0
.Ltmp744:
.Ltmp788:
@ BB#6:                                 @ %.noexc27
	@DEBUG_VALUE: allocate:__n <- %R9
	@DEBUG_VALUE: allocate:__n <- %R9
	@DEBUG_VALUE: _M_allocate:__n <- %R9
	@DEBUG_VALUE: _M_create_storage:__n <- %R9
	@DEBUG_VALUE: _Vector_base:__n <- %R9
	@DEBUG_VALUE: size:this <- %R10
	@DEBUG_VALUE: size:this <- %R4
	@DEBUG_VALUE: size:this <- %R4
	@DEBUG_VALUE: size:this <- %R4
	@DEBUG_VALUE: _M_emplace_back_aux<const std::vector<float, std::allocator<float> > &>:__args <- %R10
	@DEBUG_VALUE: _M_emplace_back_aux<const std::vector<float, std::allocator<float> > &>:this <- %R4
	@DEBUG_VALUE: _M_check_len:this <- %R4
	@DEBUG_VALUE: size:this <- %R4
	.loc	11 558 45               @ /usr/bin/../lib/gcc/arm-linux-gnueabihf/6.3.0/../../../../include/c++/6.3.0/bits/stl_vector.h:558:45
	ldm	r10, {r1, r3}
.Ltmp789:
.LBB8_7:
	@DEBUG_VALUE: allocate:__n <- %R9
	@DEBUG_VALUE: allocate:__n <- %R9
	@DEBUG_VALUE: _M_allocate:__n <- %R9
	@DEBUG_VALUE: _M_create_storage:__n <- %R9
	@DEBUG_VALUE: _Vector_base:__n <- %R9
	@DEBUG_VALUE: size:this <- %R10
	@DEBUG_VALUE: size:this <- %R4
	@DEBUG_VALUE: size:this <- %R4
	@DEBUG_VALUE: size:this <- %R4
	@DEBUG_VALUE: _M_emplace_back_aux<const std::vector<float, std::allocator<float> > &>:__args <- %R10
	@DEBUG_VALUE: _M_emplace_back_aux<const std::vector<float, std::allocator<float> > &>:this <- %R4
	@DEBUG_VALUE: _M_check_len:this <- %R4
	@DEBUG_VALUE: size:this <- %R4
	@DEBUG_VALUE: __uninitialized_copy_a<__gnu_cxx::__normal_iterator<const float *, std::vector<float, std::allocator<float> > >, float *, float>:__result <- %R7
	.loc	55 366 34               @ /usr/bin/../lib/gcc/arm-linux-gnueabihf/6.3.0/../../../../include/c++/6.3.0/bits/stl_algobase.h:366:34
	sub	r2, r3, r1
.Ltmp790:
	.loc	11 185 25               @ /usr/bin/../lib/gcc/arm-linux-gnueabihf/6.3.0/../../../../include/c++/6.3.0/bits/stl_vector.h:185:25
	str	r7, [r6]
	.loc	11 187 59               @ /usr/bin/../lib/gcc/arm-linux-gnueabihf/6.3.0/../../../../include/c++/6.3.0/bits/stl_vector.h:187:59
	add	r0, r7, r9, lsl #2
.Ltmp791:
	@DEBUG_VALUE: __copy_move_a<false, const float *, float *>:__simple <- 1
	@DEBUG_VALUE: uninitialized_copy<__gnu_cxx::__normal_iterator<const float *, std::vector<float, std::allocator<float> > >, float *>:__assignable <- 1
	.loc	11 186 26               @ /usr/bin/../lib/gcc/arm-linux-gnueabihf/6.3.0/../../../../include/c++/6.3.0/bits/stl_vector.h:186:26
	str	r7, [r5]
.Ltmp792:
	.loc	55 366 34               @ /usr/bin/../lib/gcc/arm-linux-gnueabihf/6.3.0/../../../../include/c++/6.3.0/bits/stl_algobase.h:366:34
	asr	r6, r2, #2
.Ltmp793:
	@DEBUG_VALUE: __copy_m<float>:_Num <- %R6
	.loc	11 187 34               @ /usr/bin/../lib/gcc/arm-linux-gnueabihf/6.3.0/../../../../include/c++/6.3.0/bits/stl_vector.h:187:34
	str	r0, [r8]
	mov	r0, #0
.Ltmp794:
	.loc	55 367 8                @ /usr/bin/../lib/gcc/arm-linux-gnueabihf/6.3.0/../../../../include/c++/6.3.0/bits/stl_algobase.h:367:8
	cmp	r0, r2, asr #2
	beq	.LBB8_9
.Ltmp795:
@ BB#8:
	@DEBUG_VALUE: __copy_m<float>:_Num <- %R6
	@DEBUG_VALUE: __uninitialized_copy_a<__gnu_cxx::__normal_iterator<const float *, std::vector<float, std::allocator<float> > >, float *, float>:__result <- %R7
	@DEBUG_VALUE: allocate:__n <- %R9
	@DEBUG_VALUE: allocate:__n <- %R9
	@DEBUG_VALUE: _M_allocate:__n <- %R9
	@DEBUG_VALUE: _M_create_storage:__n <- %R9
	@DEBUG_VALUE: _Vector_base:__n <- %R9
	@DEBUG_VALUE: size:this <- %R10
	@DEBUG_VALUE: size:this <- %R4
	@DEBUG_VALUE: size:this <- %R4
	@DEBUG_VALUE: size:this <- %R4
	@DEBUG_VALUE: _M_emplace_back_aux<const std::vector<float, std::allocator<float> > &>:__args <- %R10
	@DEBUG_VALUE: _M_emplace_back_aux<const std::vector<float, std::allocator<float> > &>:this <- %R4
	@DEBUG_VALUE: _M_check_len:this <- %R4
	@DEBUG_VALUE: size:this <- %R4
	.loc	55 368 6                @ /usr/bin/../lib/gcc/arm-linux-gnueabihf/6.3.0/../../../../include/c++/6.3.0/bits/stl_algobase.h:368:6
	mov	r0, r7
	bl	memmove
.Ltmp796:
.LBB8_9:
	@DEBUG_VALUE: __copy_m<float>:_Num <- %R6
	@DEBUG_VALUE: __uninitialized_copy_a<__gnu_cxx::__normal_iterator<const float *, std::vector<float, std::allocator<float> > >, float *, float>:__result <- %R7
	@DEBUG_VALUE: allocate:__n <- %R9
	@DEBUG_VALUE: allocate:__n <- %R9
	@DEBUG_VALUE: _M_allocate:__n <- %R9
	@DEBUG_VALUE: _M_create_storage:__n <- %R9
	@DEBUG_VALUE: _Vector_base:__n <- %R9
	@DEBUG_VALUE: size:this <- %R10
	@DEBUG_VALUE: size:this <- %R4
	@DEBUG_VALUE: size:this <- %R4
	@DEBUG_VALUE: size:this <- %R4
	@DEBUG_VALUE: _M_emplace_back_aux<const std::vector<float, std::allocator<float> > &>:__args <- %R10
	@DEBUG_VALUE: _M_emplace_back_aux<const std::vector<float, std::allocator<float> > &>:this <- %R4
	@DEBUG_VALUE: _M_check_len:this <- %R4
	@DEBUG_VALUE: size:this <- %R4
	@DEBUG_VALUE: size:this <- %R4
	.loc	55 369 20               @ /usr/bin/../lib/gcc/arm-linux-gnueabihf/6.3.0/../../../../include/c++/6.3.0/bits/stl_algobase.h:369:20
	add	r0, r7, r6, lsl #2
.Ltmp797:
	.loc	11 323 33 discriminator 1 @ /usr/bin/../lib/gcc/arm-linux-gnueabihf/6.3.0/../../../../include/c++/6.3.0/bits/stl_vector.h:323:33
	str	r0, [r5]
.Ltmp798:
	@DEBUG_VALUE: __uninitialized_move_if_noexcept_a<std::vector<float, std::allocator<float> > *, std::vector<float, std::allocator<float> > *, std::allocator<std::vector<float, std::allocator<float> > > >:__last <- %R0
	@DEBUG_VALUE: uninitialized_copy<std::move_iterator<std::vector<float, std::allocator<float> > *>, std::vector<float, std::allocator<float> > *>:__assignable <- 1
	@DEBUG_VALUE: __uninitialized_move_if_noexcept_a<std::vector<float, std::allocator<float> > *, std::vector<float, std::allocator<float> > *, std::allocator<std::vector<float, std::allocator<float> > > >:__first <- %R6
	ldr	r8, [sp, #8]            @ 4-byte Reload
.Ltmp799:
	.loc	53 422 23               @ /usr/bin/../lib/gcc/arm-linux-gnueabihf/6.3.0/../../../../include/c++/6.3.0/bits/vector.tcc:422:23
	ldr	r6, [r4]
.Ltmp800:
	.loc	53 422 47 is_stmt 0     @ /usr/bin/../lib/gcc/arm-linux-gnueabihf/6.3.0/../../../../include/c++/6.3.0/bits/vector.tcc:422:47
	ldr	r0, [r4, #4]
.Ltmp801:
	.loc	53 425 6 is_stmt 1      @ /usr/bin/../lib/gcc/arm-linux-gnueabihf/6.3.0/../../../../include/c++/6.3.0/bits/vector.tcc:425:6
	add	r7, r8, #12
.Ltmp802:
	.loc	58 74 8 discriminator 2 @ /usr/bin/../lib/gcc/arm-linux-gnueabihf/6.3.0/../../../../include/c++/6.3.0/bits/stl_uninitialized.h:74:8
	cmp	r6, r0
	beq	.LBB8_17
.Ltmp803:
@ BB#10:                                @ %.lr.ph.i.i.i.i.preheader
	@DEBUG_VALUE: size:this <- %R4
	@DEBUG_VALUE: allocate:__n <- %R9
	@DEBUG_VALUE: allocate:__n <- %R9
	@DEBUG_VALUE: _M_allocate:__n <- %R9
	@DEBUG_VALUE: _M_create_storage:__n <- %R9
	@DEBUG_VALUE: _Vector_base:__n <- %R9
	@DEBUG_VALUE: size:this <- %R10
	@DEBUG_VALUE: size:this <- %R4
	@DEBUG_VALUE: size:this <- %R4
	@DEBUG_VALUE: size:this <- %R4
	@DEBUG_VALUE: _M_emplace_back_aux<const std::vector<float, std::allocator<float> > &>:__args <- %R10
	@DEBUG_VALUE: _M_emplace_back_aux<const std::vector<float, std::allocator<float> > &>:this <- %R4
	@DEBUG_VALUE: _M_check_len:this <- %R4
	@DEBUG_VALUE: size:this <- %R4
	mov	r1, #0
.Ltmp804:
.LBB8_11:                               @ %.lr.ph.i.i.i.i
                                        @ =>This Inner Loop Header: Depth=1
	@DEBUG_VALUE: _Construct<std::vector<float, std::allocator<float> >, std::vector<float, std::allocator<float> > >:__args <- %R6
	.loc	11 97 4                 @ /usr/bin/../lib/gcc/arm-linux-gnueabihf/6.3.0/../../../../include/c++/6.3.0/bits/stl_vector.h:97:4
	str	r1, [r7, #-12]
	.loc	11 97 16 is_stmt 0      @ /usr/bin/../lib/gcc/arm-linux-gnueabihf/6.3.0/../../../../include/c++/6.3.0/bits/stl_vector.h:97:16
	str	r1, [r7, #-8]
	.loc	11 97 29                @ /usr/bin/../lib/gcc/arm-linux-gnueabihf/6.3.0/../../../../include/c++/6.3.0/bits/stl_vector.h:97:29
	str	r1, [r7, #-4]
.Ltmp805:
	.file	60 "/usr/bin/../lib/gcc/arm-linux-gnueabihf/6.3.0/../../../../include/c++/6.3.0/bits" "move.h"
	.loc	60 191 13 is_stmt 1     @ /usr/bin/../lib/gcc/arm-linux-gnueabihf/6.3.0/../../../../include/c++/6.3.0/bits/move.h:191:13
	ldr	r2, [r6]
	.loc	60 191 11 is_stmt 0     @ /usr/bin/../lib/gcc/arm-linux-gnueabihf/6.3.0/../../../../include/c++/6.3.0/bits/move.h:191:11
	str	r2, [r7, #-12]
	.loc	60 192 11 is_stmt 1     @ /usr/bin/../lib/gcc/arm-linux-gnueabihf/6.3.0/../../../../include/c++/6.3.0/bits/move.h:192:11
	str	r1, [r6]
.Ltmp806:
	.loc	60 190 19               @ /usr/bin/../lib/gcc/arm-linux-gnueabihf/6.3.0/../../../../include/c++/6.3.0/bits/move.h:190:19
	ldr	r2, [r7, #-8]
	.loc	60 191 13               @ /usr/bin/../lib/gcc/arm-linux-gnueabihf/6.3.0/../../../../include/c++/6.3.0/bits/move.h:191:13
	ldr	r3, [r6, #4]
	.loc	60 191 11 is_stmt 0     @ /usr/bin/../lib/gcc/arm-linux-gnueabihf/6.3.0/../../../../include/c++/6.3.0/bits/move.h:191:11
	str	r3, [r7, #-8]
	.loc	60 192 11 is_stmt 1     @ /usr/bin/../lib/gcc/arm-linux-gnueabihf/6.3.0/../../../../include/c++/6.3.0/bits/move.h:192:11
	str	r2, [r6, #4]
.Ltmp807:
	.loc	60 190 19               @ /usr/bin/../lib/gcc/arm-linux-gnueabihf/6.3.0/../../../../include/c++/6.3.0/bits/move.h:190:19
	ldr	r2, [r7, #-4]
	.loc	60 191 13               @ /usr/bin/../lib/gcc/arm-linux-gnueabihf/6.3.0/../../../../include/c++/6.3.0/bits/move.h:191:13
	ldr	r3, [r6, #8]
	.loc	60 191 11 is_stmt 0     @ /usr/bin/../lib/gcc/arm-linux-gnueabihf/6.3.0/../../../../include/c++/6.3.0/bits/move.h:191:11
	str	r3, [r7, #-4]
.Ltmp808:
	.loc	12 1133 14 is_stmt 1    @ /usr/bin/../lib/gcc/arm-linux-gnueabihf/6.3.0/../../../../include/c++/6.3.0/bits/stl_iterator.h:1133:14
	add	r7, r7, #12
.Ltmp809:
	.loc	60 192 11               @ /usr/bin/../lib/gcc/arm-linux-gnueabihf/6.3.0/../../../../include/c++/6.3.0/bits/move.h:192:11
	str	r2, [r6, #8]
.Ltmp810:
	.loc	12 1133 14              @ /usr/bin/../lib/gcc/arm-linux-gnueabihf/6.3.0/../../../../include/c++/6.3.0/bits/stl_iterator.h:1133:14
	add	r6, r6, #12
.Ltmp811:
	.loc	58 74 8 discriminator 2 @ /usr/bin/../lib/gcc/arm-linux-gnueabihf/6.3.0/../../../../include/c++/6.3.0/bits/stl_uninitialized.h:74:8
	cmp	r6, r0
	bne	.LBB8_11
.Ltmp812:
@ BB#12:                                @ %_ZSt34__uninitialized_move_if_noexcept_aIPSt6vectorIfSaIfEES3_SaIS2_EET0_T_S6_S5_RT1_.exit
	@DEBUG_VALUE: __destroy<std::vector<float, std::allocator<float> > *>:__first <- %R5
	@DEBUG_VALUE: _Destroy<std::vector<float, std::allocator<float> > *>:__first <- %R5
	@DEBUG_VALUE: _Destroy<std::vector<float, std::allocator<float> > *, std::vector<float, std::allocator<float> > >:__first <- %R5
	@DEBUG_VALUE: __destroy<std::vector<float, std::allocator<float> > *>:__last <- %R6
	@DEBUG_VALUE: _Destroy<std::vector<float, std::allocator<float> > *>:__last <- %R6
	@DEBUG_VALUE: _Destroy<std::vector<float, std::allocator<float> > *, std::vector<float, std::allocator<float> > >:__last <- %R6
	.loc	53 436 30               @ /usr/bin/../lib/gcc/arm-linux-gnueabihf/6.3.0/../../../../include/c++/6.3.0/bits/vector.tcc:436:30
	ldm	r4, {r5, r6}
.Ltmp813:
	.loc	46 102 4 discriminator 1 @ /usr/bin/../lib/gcc/arm-linux-gnueabihf/6.3.0/../../../../include/c++/6.3.0/bits/stl_construct.h:102:4
	cmp	r5, r6
	beq	.LBB8_17
.LBB8_13:                               @ %.lr.ph.i.i.i
                                        @ =>This Inner Loop Header: Depth=1
.Ltmp814:
	@DEBUG_VALUE: __addressof<std::vector<float, std::allocator<float> > >:__r <- %R5
	.loc	11 160 37               @ /usr/bin/../lib/gcc/arm-linux-gnueabihf/6.3.0/../../../../include/c++/6.3.0/bits/stl_vector.h:160:37
	ldr	r0, [r5]
.Ltmp815:
	@DEBUG_VALUE: _M_deallocate:__p <- %R0
	@DEBUG_VALUE: deallocate:__p <- %R0
	@DEBUG_VALUE: deallocate:__p <- %R0
	.loc	11 177 6                @ /usr/bin/../lib/gcc/arm-linux-gnueabihf/6.3.0/../../../../include/c++/6.3.0/bits/stl_vector.h:177:6
	cmp	r0, #0
	beq	.LBB8_15
.Ltmp816:
@ BB#14:                                @   in Loop: Header=BB8_13 Depth=1
	@DEBUG_VALUE: deallocate:__p <- %R0
	@DEBUG_VALUE: deallocate:__p <- %R0
	@DEBUG_VALUE: _M_deallocate:__p <- %R0
	@DEBUG_VALUE: __addressof<std::vector<float, std::allocator<float> > >:__r <- %R5
	.loc	7 110 9                 @ /usr/bin/../lib/gcc/arm-linux-gnueabihf/6.3.0/../../../../include/c++/6.3.0/ext/new_allocator.h:110:9
	bl	_ZdlPv
.Ltmp817:
.LBB8_15:                               @ %_ZSt8_DestroyISt6vectorIfSaIfEEEvPT_.exit.i.i.i
                                        @   in Loop: Header=BB8_13 Depth=1
	@DEBUG_VALUE: __addressof<std::vector<float, std::allocator<float> > >:__r <- %R5
	.loc	46 102 30 discriminator 2 @ /usr/bin/../lib/gcc/arm-linux-gnueabihf/6.3.0/../../../../include/c++/6.3.0/bits/stl_construct.h:102:30
	add	r5, r5, #12
.Ltmp818:
	@DEBUG_VALUE: __destroy<std::vector<float, std::allocator<float> > *>:__first <- %R5
	.loc	46 102 4 is_stmt 0 discriminator 1 @ /usr/bin/../lib/gcc/arm-linux-gnueabihf/6.3.0/../../../../include/c++/6.3.0/bits/stl_construct.h:102:4
	cmp	r6, r5
	bne	.LBB8_13
.Ltmp819:
@ BB#16:                                @ %_ZSt8_DestroyIPSt6vectorIfSaIfEES2_EvT_S4_RSaIT0_E.exitthread-pre-split
	@DEBUG_VALUE: __destroy<std::vector<float, std::allocator<float> > *>:__first <- %R5
	.loc	53 438 30 is_stmt 1     @ /usr/bin/../lib/gcc/arm-linux-gnueabihf/6.3.0/../../../../include/c++/6.3.0/bits/vector.tcc:438:30
	ldr	r6, [r4]
.Ltmp820:
.LBB8_17:                               @ %_ZSt8_DestroyIPSt6vectorIfSaIfEES2_EvT_S4_RSaIT0_E.exit
	@DEBUG_VALUE: _M_deallocate:__p <- %R6
	ldr	r5, [sp, #4]            @ 4-byte Reload
.Ltmp821:
	.loc	11 177 6                @ /usr/bin/../lib/gcc/arm-linux-gnueabihf/6.3.0/../../../../include/c++/6.3.0/bits/stl_vector.h:177:6
	cmp	r6, #0
	beq	.LBB8_19
.Ltmp822:
@ BB#18:
	@DEBUG_VALUE: _M_deallocate:__p <- %R6
	.loc	7 110 9                 @ /usr/bin/../lib/gcc/arm-linux-gnueabihf/6.3.0/../../../../include/c++/6.3.0/ext/new_allocator.h:110:9
	mov	r0, r6
	bl	_ZdlPv
.Ltmp823:
.LBB8_19:                               @ %_ZNSt12_Vector_baseISt6vectorIfSaIfEESaIS2_EE13_M_deallocateEPS2_j.exit28
	@DEBUG_VALUE: _M_deallocate:__p <- %R6
	.loc	53 443 48               @ /usr/bin/../lib/gcc/arm-linux-gnueabihf/6.3.0/../../../../include/c++/6.3.0/bits/vector.tcc:443:48
	add	r0, r5, r5, lsl #1
	.loc	53 441 25               @ /usr/bin/../lib/gcc/arm-linux-gnueabihf/6.3.0/../../../../include/c++/6.3.0/bits/vector.tcc:441:25
	str	r8, [r4]
	.loc	53 442 26               @ /usr/bin/../lib/gcc/arm-linux-gnueabihf/6.3.0/../../../../include/c++/6.3.0/bits/vector.tcc:442:26
	str	r7, [r4, #4]
	.loc	53 443 48               @ /usr/bin/../lib/gcc/arm-linux-gnueabihf/6.3.0/../../../../include/c++/6.3.0/bits/vector.tcc:443:48
	add	r0, r8, r0, lsl #2
	.loc	53 443 34 is_stmt 0     @ /usr/bin/../lib/gcc/arm-linux-gnueabihf/6.3.0/../../../../include/c++/6.3.0/bits/vector.tcc:443:34
	str	r0, [r4, #8]
	.loc	53 444 7 is_stmt 1 discriminator 3 @ /usr/bin/../lib/gcc/arm-linux-gnueabihf/6.3.0/../../../../include/c++/6.3.0/bits/vector.tcc:444:7
	sub	sp, r11, #28
	pop	{r4, r5, r6, r7, r8, r9, r10, r11, pc}
.Ltmp824:
.LBB8_20:
	@DEBUG_VALUE: _M_check_len:__len <- %R3
	@DEBUG_VALUE: deallocate: <- %R5
	@DEBUG_VALUE: deallocate:__n <- %R5
	@DEBUG_VALUE: _M_deallocate:__n <- %R5
	@DEBUG_VALUE: allocate:__n <- %R5
	@DEBUG_VALUE: allocate:__n <- %R5
	@DEBUG_VALUE: _M_emplace_back_aux<const std::vector<float, std::allocator<float> > &>:__len <- %R5
	@DEBUG_VALUE: _M_allocate:__n <- %R5
	@DEBUG_VALUE: size:this <- %R4
	@DEBUG_VALUE: size:this <- %R4
	@DEBUG_VALUE: size:this <- %R4
	@DEBUG_VALUE: _M_emplace_back_aux<const std::vector<float, std::allocator<float> > &>:__args <- %R10
	@DEBUG_VALUE: _M_emplace_back_aux<const std::vector<float, std::allocator<float> > &>:this <- %R4
	@DEBUG_VALUE: _M_check_len:this <- %R4
	@DEBUG_VALUE: size:this <- %R4
	.loc	7 102 4                 @ /usr/bin/../lib/gcc/arm-linux-gnueabihf/6.3.0/../../../../include/c++/6.3.0/ext/new_allocator.h:102:4
	mov	lr, pc
	b	_ZSt17__throw_bad_allocv
.Ltmp825:
.LBB8_21:                               @ %.noexc.i.i.i.i
	@DEBUG_VALUE: _M_emplace_back_aux<const std::vector<float, std::allocator<float> > &>:__new_start <- [%SP+8]
	@DEBUG_VALUE: allocate:__n <- %R9
	@DEBUG_VALUE: allocate:__n <- %R9
	@DEBUG_VALUE: _M_allocate:__n <- %R9
	@DEBUG_VALUE: _M_create_storage:__n <- %R9
	@DEBUG_VALUE: _Vector_base:__n <- %R9
	@DEBUG_VALUE: size:this <- %R10
	@DEBUG_VALUE: size:this <- %R4
	@DEBUG_VALUE: size:this <- %R4
	@DEBUG_VALUE: size:this <- %R4
	@DEBUG_VALUE: _M_emplace_back_aux<const std::vector<float, std::allocator<float> > &>:__args <- %R10
	@DEBUG_VALUE: _M_emplace_back_aux<const std::vector<float, std::allocator<float> > &>:this <- %R4
	@DEBUG_VALUE: _M_check_len:this <- %R4
	@DEBUG_VALUE: size:this <- %R4
	.loc	7 102 4 is_stmt 0       @ /usr/bin/../lib/gcc/arm-linux-gnueabihf/6.3.0/../../../../include/c++/6.3.0/ext/new_allocator.h:102:4
.Ltmp745:
	mov	lr, pc
	b	_ZSt17__throw_bad_allocv
.Ltmp826:
.Ltmp746:
.Ltmp827:
@ BB#22:                                @ %.noexc
	@DEBUG_VALUE: allocate:__n <- %R9
	@DEBUG_VALUE: allocate:__n <- %R9
	@DEBUG_VALUE: _M_allocate:__n <- %R9
	@DEBUG_VALUE: _M_create_storage:__n <- %R9
	@DEBUG_VALUE: _Vector_base:__n <- %R9
	@DEBUG_VALUE: size:this <- %R10
	@DEBUG_VALUE: size:this <- %R4
	@DEBUG_VALUE: size:this <- %R4
	@DEBUG_VALUE: size:this <- %R4
	@DEBUG_VALUE: _M_emplace_back_aux<const std::vector<float, std::allocator<float> > &>:__args <- %R10
	@DEBUG_VALUE: _M_emplace_back_aux<const std::vector<float, std::allocator<float> > &>:this <- %R4
	@DEBUG_VALUE: _M_check_len:this <- %R4
	@DEBUG_VALUE: size:this <- %R4
.LBB8_23:
	@DEBUG_VALUE: allocate:__n <- %R9
	@DEBUG_VALUE: allocate:__n <- %R9
	@DEBUG_VALUE: _M_allocate:__n <- %R9
	@DEBUG_VALUE: _M_create_storage:__n <- %R9
	@DEBUG_VALUE: _Vector_base:__n <- %R9
	@DEBUG_VALUE: size:this <- %R10
	@DEBUG_VALUE: size:this <- %R4
	@DEBUG_VALUE: size:this <- %R4
	@DEBUG_VALUE: size:this <- %R4
	@DEBUG_VALUE: _M_emplace_back_aux<const std::vector<float, std::allocator<float> > &>:__args <- %R10
	@DEBUG_VALUE: _M_emplace_back_aux<const std::vector<float, std::allocator<float> > &>:this <- %R4
	@DEBUG_VALUE: _M_check_len:this <- %R4
	@DEBUG_VALUE: size:this <- %R4
.Ltmp747:
	.loc	53 426 4 is_stmt 1 discriminator 1 @ /usr/bin/../lib/gcc/arm-linux-gnueabihf/6.3.0/../../../../include/c++/6.3.0/bits/vector.tcc:426:4
	bl	__cxa_begin_catch
.Ltmp828:
	.loc	53 429 10               @ /usr/bin/../lib/gcc/arm-linux-gnueabihf/6.3.0/../../../../include/c++/6.3.0/bits/vector.tcc:429:10
	ldr	r0, [sp, #8]            @ 4-byte Reload
	cmp	r0, #0
	bne	.LBB8_25
.Ltmp829:
@ BB#24:
	@DEBUG_VALUE: allocate:__n <- %R9
	@DEBUG_VALUE: allocate:__n <- %R9
	@DEBUG_VALUE: _M_allocate:__n <- %R9
	@DEBUG_VALUE: _M_create_storage:__n <- %R9
	@DEBUG_VALUE: _Vector_base:__n <- %R9
	@DEBUG_VALUE: size:this <- %R10
	@DEBUG_VALUE: size:this <- %R4
	@DEBUG_VALUE: size:this <- %R4
	@DEBUG_VALUE: size:this <- %R4
	@DEBUG_VALUE: _M_emplace_back_aux<const std::vector<float, std::allocator<float> > &>:__args <- %R10
	@DEBUG_VALUE: _M_emplace_back_aux<const std::vector<float, std::allocator<float> > &>:this <- %R4
	@DEBUG_VALUE: _M_check_len:this <- %R4
	@DEBUG_VALUE: size:this <- %R4
	.inst	0xe7ffdefe
.Ltmp830:                               @ trap
.LBB8_25:                               @ %_ZNSt12_Vector_baseISt6vectorIfSaIfEESaIS2_EE13_M_deallocateEPS2_j.exit
	@DEBUG_VALUE: allocate:__n <- %R9
	@DEBUG_VALUE: allocate:__n <- %R9
	@DEBUG_VALUE: _M_allocate:__n <- %R9
	@DEBUG_VALUE: _M_create_storage:__n <- %R9
	@DEBUG_VALUE: _Vector_base:__n <- %R9
	@DEBUG_VALUE: size:this <- %R10
	@DEBUG_VALUE: size:this <- %R4
	@DEBUG_VALUE: size:this <- %R4
	@DEBUG_VALUE: size:this <- %R4
	@DEBUG_VALUE: _M_emplace_back_aux<const std::vector<float, std::allocator<float> > &>:__args <- %R10
	@DEBUG_VALUE: _M_emplace_back_aux<const std::vector<float, std::allocator<float> > &>:this <- %R4
	@DEBUG_VALUE: _M_check_len:this <- %R4
	@DEBUG_VALUE: size:this <- %R4
	.loc	7 110 9                 @ /usr/bin/../lib/gcc/arm-linux-gnueabihf/6.3.0/../../../../include/c++/6.3.0/ext/new_allocator.h:110:9
	ldr	r0, [sp, #8]            @ 4-byte Reload
	bl	_ZdlPv
.Ltmp831:
	.loc	53 434 6                @ /usr/bin/../lib/gcc/arm-linux-gnueabihf/6.3.0/../../../../include/c++/6.3.0/bits/vector.tcc:434:6
.Ltmp748:
	mov	lr, pc
	b	__cxa_rethrow
.Ltmp749:
.Ltmp832:
@ BB#26:
	@DEBUG_VALUE: allocate:__n <- %R9
	@DEBUG_VALUE: allocate:__n <- %R9
	@DEBUG_VALUE: _M_allocate:__n <- %R9
	@DEBUG_VALUE: _M_create_storage:__n <- %R9
	@DEBUG_VALUE: _Vector_base:__n <- %R9
	@DEBUG_VALUE: size:this <- %R10
	@DEBUG_VALUE: size:this <- %R4
	@DEBUG_VALUE: size:this <- %R4
	@DEBUG_VALUE: size:this <- %R4
	@DEBUG_VALUE: _M_emplace_back_aux<const std::vector<float, std::allocator<float> > &>:__args <- %R10
	@DEBUG_VALUE: _M_emplace_back_aux<const std::vector<float, std::allocator<float> > &>:this <- %R4
	@DEBUG_VALUE: _M_check_len:this <- %R4
	@DEBUG_VALUE: size:this <- %R4
.LBB8_27:
	@DEBUG_VALUE: allocate:__n <- %R9
	@DEBUG_VALUE: allocate:__n <- %R9
	@DEBUG_VALUE: _M_allocate:__n <- %R9
	@DEBUG_VALUE: _M_create_storage:__n <- %R9
	@DEBUG_VALUE: _Vector_base:__n <- %R9
	@DEBUG_VALUE: size:this <- %R10
	@DEBUG_VALUE: size:this <- %R4
	@DEBUG_VALUE: size:this <- %R4
	@DEBUG_VALUE: size:this <- %R4
	@DEBUG_VALUE: _M_emplace_back_aux<const std::vector<float, std::allocator<float> > &>:__args <- %R10
	@DEBUG_VALUE: _M_emplace_back_aux<const std::vector<float, std::allocator<float> > &>:this <- %R4
	@DEBUG_VALUE: _M_check_len:this <- %R4
	@DEBUG_VALUE: size:this <- %R4
.Ltmp750:
	mov	r4, r0
.Ltmp833:
	.loc	53 435 4                @ /usr/bin/../lib/gcc/arm-linux-gnueabihf/6.3.0/../../../../include/c++/6.3.0/bits/vector.tcc:435:4
.Ltmp751:
	bl	__cxa_end_catch
.Ltmp752:
.Ltmp834:
@ BB#28:
	@DEBUG_VALUE: allocate:__n <- %R9
	@DEBUG_VALUE: allocate:__n <- %R9
	@DEBUG_VALUE: _M_allocate:__n <- %R9
	@DEBUG_VALUE: _M_create_storage:__n <- %R9
	@DEBUG_VALUE: _Vector_base:__n <- %R9
	@DEBUG_VALUE: size:this <- %R10
	@DEBUG_VALUE: _M_emplace_back_aux<const std::vector<float, std::allocator<float> > &>:__args <- %R10
	mov	r0, r4
	mov	lr, pc
	b	_Unwind_Resume
.Ltmp835:
.LBB8_29:
	@DEBUG_VALUE: allocate:__n <- %R9
	@DEBUG_VALUE: allocate:__n <- %R9
	@DEBUG_VALUE: _M_allocate:__n <- %R9
	@DEBUG_VALUE: _M_create_storage:__n <- %R9
	@DEBUG_VALUE: _Vector_base:__n <- %R9
	@DEBUG_VALUE: size:this <- %R10
	@DEBUG_VALUE: _M_emplace_back_aux<const std::vector<float, std::allocator<float> > &>:__args <- %R10
.Ltmp753:
	.loc	53 435 4 is_stmt 0 discriminator 1 @ /usr/bin/../lib/gcc/arm-linux-gnueabihf/6.3.0/../../../../include/c++/6.3.0/bits/vector.tcc:435:4
	mov	lr, pc
	b	__clang_call_terminate
.Ltmp836:
.Lfunc_end8:
	.size	_ZNSt6vectorIS_IfSaIfEESaIS1_EE19_M_emplace_back_auxIJRKS1_EEEvDpOT_, .Lfunc_end8-_ZNSt6vectorIS_IfSaIfEESaIS1_EE19_M_emplace_back_auxIJRKS1_EEEvDpOT_
	.cfi_endproc
	.globl	__gxx_personality_v0
	.personality __gxx_personality_v0
	.handlerdata
	.p2align	2
GCC_except_table8:
.Lexception4:
	.byte	255                     @ @LPStart Encoding = omit
	.byte	0                       @ @TType Encoding = absptr
	.asciz	"\360"                  @ @TType base offset
	.byte	3                       @ Call site Encoding = udata4
	.byte	104                     @ Call site table length
	.long	.Lfunc_begin8-.Lfunc_begin8 @ >> Call Site 1 <<
	.long	.Ltmp743-.Lfunc_begin8  @   Call between .Lfunc_begin8 and .Ltmp743
	.long	0                       @     has no landing pad
	.byte	0                       @   On action: cleanup
	.long	.Ltmp743-.Lfunc_begin8  @ >> Call Site 2 <<
	.long	.Ltmp744-.Ltmp743       @   Call between .Ltmp743 and .Ltmp744
	.long	.Ltmp747-.Lfunc_begin8  @     jumps to .Ltmp747
	.byte	1                       @   On action: 1
	.long	.Ltmp744-.Lfunc_begin8  @ >> Call Site 3 <<
	.long	.Ltmp745-.Ltmp744       @   Call between .Ltmp744 and .Ltmp745
	.long	0                       @     has no landing pad
	.byte	0                       @   On action: cleanup
	.long	.Ltmp745-.Lfunc_begin8  @ >> Call Site 4 <<
	.long	.Ltmp746-.Ltmp745       @   Call between .Ltmp745 and .Ltmp746
	.long	.Ltmp747-.Lfunc_begin8  @     jumps to .Ltmp747
	.byte	1                       @   On action: 1
	.long	.Ltmp746-.Lfunc_begin8  @ >> Call Site 5 <<
	.long	.Ltmp748-.Ltmp746       @   Call between .Ltmp746 and .Ltmp748
	.long	0                       @     has no landing pad
	.byte	0                       @   On action: cleanup
	.long	.Ltmp748-.Lfunc_begin8  @ >> Call Site 6 <<
	.long	.Ltmp749-.Ltmp748       @   Call between .Ltmp748 and .Ltmp749
	.long	.Ltmp750-.Lfunc_begin8  @     jumps to .Ltmp750
	.byte	0                       @   On action: cleanup
	.long	.Ltmp751-.Lfunc_begin8  @ >> Call Site 7 <<
	.long	.Ltmp752-.Ltmp751       @   Call between .Ltmp751 and .Ltmp752
	.long	.Ltmp753-.Lfunc_begin8  @     jumps to .Ltmp753
	.byte	1                       @   On action: 1
	.long	.Ltmp752-.Lfunc_begin8  @ >> Call Site 8 <<
	.long	.Lfunc_end8-.Ltmp752    @   Call between .Ltmp752 and .Lfunc_end8
	.long	0                       @     has no landing pad
	.byte	0                       @   On action: cleanup
	.byte	1                       @ >> Action Record 1 <<
                                        @   Catch TypeInfo 1
	.byte	0                       @   No further actions
                                        @ >> Catch TypeInfos <<
	.long	0                       @ TypeInfo 1
	.p2align	2
	.fnend

	.section	.text.startup,"ax",%progbits
	.p2align	2
	.type	_GLOBAL__sub_I_render.ii,%function
_GLOBAL__sub_I_render.ii:               @ @_GLOBAL__sub_I_render.ii
.Lfunc_begin9:
	.loc	45 0 0 is_stmt 1        @ /root/Bela/projects/frek_domen_filtriranje/build/render.cpp:0:0
	.fnstart
	.cfi_startproc
@ BB#0:
	.save	{r4, r5, r6, r7, r8, r9, r11, lr}
	push	{r4, r5, r6, r7, r8, r9, r11, lr}
.Ltmp876:
	.cfi_def_cfa_offset 32
.Ltmp877:
	.cfi_offset lr, -4
.Ltmp878:
	.cfi_offset r11, -8
.Ltmp879:
	.cfi_offset r9, -12
.Ltmp880:
	.cfi_offset r8, -16
.Ltmp881:
	.cfi_offset r7, -20
.Ltmp882:
	.cfi_offset r6, -24
.Ltmp883:
	.cfi_offset r5, -28
.Ltmp884:
	.cfi_offset r4, -32
	.setfp	r11, sp, #24
	add	r11, sp, #24
.Ltmp885:
	.cfi_def_cfa r11, 8
	.pad	#16
	sub	sp, sp, #16
.Ltmp886:
	.loc	4 74 25 prologue_end    @ /usr/bin/../lib/gcc/arm-linux-gnueabihf/6.3.0/../../../../include/c++/6.3.0/iostream:74:25
	movw	r4, :lower16:_ZStL8__ioinit
	movt	r4, :upper16:_ZStL8__ioinit
	mov	r0, r4
	bl	_ZNSt8ios_base4InitC1Ev
	.loc	4 74 25 is_stmt 0 discriminator 1 @ /usr/bin/../lib/gcc/arm-linux-gnueabihf/6.3.0/../../../../include/c++/6.3.0/iostream:74:25
	movw	r0, :lower16:_ZNSt8ios_base4InitD1Ev
	movw	r2, :lower16:__dso_handle
	movt	r0, :upper16:_ZNSt8ios_base4InitD1Ev
	movt	r2, :upper16:__dso_handle
	mov	r1, r4
	bl	__cxa_atexit
.Ltmp887:
	.loc	5 19 27 is_stmt 1       @ /root/Bela/projects/frek_domen_filtriranje/render.cpp:19:27
	movw	r4, :lower16:.L_MergedGlobals
	mov	r5, #0
	movt	r4, :upper16:.L_MergedGlobals
.Ltmp888:
	@DEBUG_VALUE: vector:__n <- %R7
	@DEBUG_VALUE: _Vector_base:__n <- %R7
	@DEBUG_VALUE: _M_create_storage:__n <- %R7
	@DEBUG_VALUE: _M_allocate:__n <- %R7
	@DEBUG_VALUE: allocate:__n <- %R7
	@DEBUG_VALUE: allocate:__n <- %R7
	@DEBUG_VALUE: _M_fill_initialize:__n <- %R7
	@DEBUG_VALUE: __uninitialized_fill_n_a<float *, unsigned int, float, float>:__n <- %R7
	@DEBUG_VALUE: uninitialized_fill_n<float *, unsigned int, float>:__n <- %R7
	@DEBUG_VALUE: __uninit_fill_n<float *, unsigned int, float>:__n <- %R7
	@DEBUG_VALUE: fill_n<float *, unsigned int, float>:__n <- %R7
	@DEBUG_VALUE: __fill_n_a<float *, unsigned int, float>:__n <- %R7
	@DEBUG_VALUE: __niter <- %R7
	@DEBUG_VALUE: vector:__n <- %R6
	@DEBUG_VALUE: _Vector_base:__n <- %R6
	@DEBUG_VALUE: _M_create_storage:__n <- %R6
	@DEBUG_VALUE: _M_allocate:__n <- %R6
	@DEBUG_VALUE: allocate:__n <- %R6
	@DEBUG_VALUE: allocate:__n <- %R6
	@DEBUG_VALUE: _M_fill_initialize:__n <- %R6
	@DEBUG_VALUE: __uninitialized_fill_n_a<std::vector<float, std::allocator<float> > *, unsigned int, std::vector<float, std::allocator<float> >, std::vector<float, std::allocator<float> > >:__n <- %R6
	@DEBUG_VALUE: uninitialized_fill_n<std::vector<float, std::allocator<float> > *, unsigned int, std::vector<float, std::allocator<float> > >:__n <- %R6
	.loc	11 91 25                @ /usr/bin/../lib/gcc/arm-linux-gnueabihf/6.3.0/../../../../include/c++/6.3.0/bits/stl_vector.h:91:25
	str	r5, [sp, #4]
.Ltmp889:
	.loc	5 19 27                 @ /root/Bela/projects/frek_domen_filtriranje/render.cpp:19:27
	ldrd	r6, r7, [r4]
.Ltmp890:
	.loc	11 170 9                @ /usr/bin/../lib/gcc/arm-linux-gnueabihf/6.3.0/../../../../include/c++/6.3.0/bits/stl_vector.h:170:9
	cmp	r7, #0
.Ltmp891:
	.loc	11 91 37                @ /usr/bin/../lib/gcc/arm-linux-gnueabihf/6.3.0/../../../../include/c++/6.3.0/bits/stl_vector.h:91:37
	str	r5, [sp, #8]
	.loc	11 91 50 is_stmt 0      @ /usr/bin/../lib/gcc/arm-linux-gnueabihf/6.3.0/../../../../include/c++/6.3.0/bits/stl_vector.h:91:50
	str	r5, [sp, #12]
	beq	.LBB9_4
.Ltmp892:
@ BB#1:
	.loc	7 101 6 is_stmt 1       @ /usr/bin/../lib/gcc/arm-linux-gnueabihf/6.3.0/../../../../include/c++/6.3.0/ext/new_allocator.h:101:6
	cmp	r7, #1073741824
	bhs	.LBB9_38
@ BB#2:                                 @ %.lr.ph.i.i.i.i.i.i.preheader.i.i
	.loc	7 104 46                @ /usr/bin/../lib/gcc/arm-linux-gnueabihf/6.3.0/../../../../include/c++/6.3.0/ext/new_allocator.h:104:46
	lsl	r8, r7, #2
	.loc	7 104 27 is_stmt 0      @ /usr/bin/../lib/gcc/arm-linux-gnueabihf/6.3.0/../../../../include/c++/6.3.0/ext/new_allocator.h:104:27
.Ltmp837:
	mov	r0, r8
	bl	_Znwj
.Ltmp838:
.Ltmp893:
@ BB#3:                                 @ %.noexc2.i
	@DEBUG_VALUE: __fill_n_a<float *, unsigned int, float>:__first <- %R0
	@DEBUG_VALUE: fill_n<float *, unsigned int, float>:__first <- %R0
	@DEBUG_VALUE: __uninit_fill_n<float *, unsigned int, float>:__first <- %R0
	@DEBUG_VALUE: uninitialized_fill_n<float *, unsigned int, float>:__first <- %R0
	@DEBUG_VALUE: __uninitialized_fill_n_a<float *, unsigned int, float, float>:__first <- %R0
	.loc	55 754 11 is_stmt 1     @ /usr/bin/../lib/gcc/arm-linux-gnueabihf/6.3.0/../../../../include/c++/6.3.0/bits/stl_algobase.h:754:11
	mov	r1, #0
	mov	r2, r8
.Ltmp894:
	.loc	11 185 25               @ /usr/bin/../lib/gcc/arm-linux-gnueabihf/6.3.0/../../../../include/c++/6.3.0/bits/stl_vector.h:185:25
	str	r0, [sp, #4]
	.loc	11 187 59               @ /usr/bin/../lib/gcc/arm-linux-gnueabihf/6.3.0/../../../../include/c++/6.3.0/bits/stl_vector.h:187:59
	add	r5, r0, r7, lsl #2
	.loc	11 186 26               @ /usr/bin/../lib/gcc/arm-linux-gnueabihf/6.3.0/../../../../include/c++/6.3.0/bits/stl_vector.h:186:26
	str	r0, [sp, #8]
	.loc	11 187 34               @ /usr/bin/../lib/gcc/arm-linux-gnueabihf/6.3.0/../../../../include/c++/6.3.0/bits/stl_vector.h:187:34
	str	r5, [sp, #12]
.Ltmp895:
	@DEBUG_VALUE: uninitialized_fill_n<float *, unsigned int, float>:__assignable <- 1
	.loc	55 754 11               @ /usr/bin/../lib/gcc/arm-linux-gnueabihf/6.3.0/../../../../include/c++/6.3.0/bits/stl_algobase.h:754:11
	bl	memset
.Ltmp896:
	b	.LBB9_5
.Ltmp897:
.LBB9_4:                                @ %_ZNSt12_Vector_baseIfSaIfEEC2EjRKS0_.exit.thread.i.i
	.loc	11 185 25               @ /usr/bin/../lib/gcc/arm-linux-gnueabihf/6.3.0/../../../../include/c++/6.3.0/bits/stl_vector.h:185:25
	str	r5, [sp, #4]
	.loc	11 186 26               @ /usr/bin/../lib/gcc/arm-linux-gnueabihf/6.3.0/../../../../include/c++/6.3.0/bits/stl_vector.h:186:26
	str	r5, [sp, #8]
	@DEBUG_VALUE: uninitialized_fill_n<float *, unsigned int, float>:__assignable <- 1
	.loc	11 187 34               @ /usr/bin/../lib/gcc/arm-linux-gnueabihf/6.3.0/../../../../include/c++/6.3.0/bits/stl_vector.h:187:34
	str	r5, [sp, #12]
.Ltmp898:
.LBB9_5:                                @ %.loopexit.i
	movw	r8, #21845
	mov	r0, #0
	movt	r8, #5461
.Ltmp899:
	.loc	11 91 25                @ /usr/bin/../lib/gcc/arm-linux-gnueabihf/6.3.0/../../../../include/c++/6.3.0/bits/stl_vector.h:91:25
	str	r0, [r4, #12]
	.loc	11 91 37 is_stmt 0      @ /usr/bin/../lib/gcc/arm-linux-gnueabihf/6.3.0/../../../../include/c++/6.3.0/bits/stl_vector.h:91:37
	str	r0, [r4, #16]
.Ltmp900:
	.loc	11 170 9 is_stmt 1      @ /usr/bin/../lib/gcc/arm-linux-gnueabihf/6.3.0/../../../../include/c++/6.3.0/bits/stl_vector.h:170:9
	cmp	r6, #0
.Ltmp901:
	.loc	11 1298 26              @ /usr/bin/../lib/gcc/arm-linux-gnueabihf/6.3.0/../../../../include/c++/6.3.0/bits/stl_vector.h:1298:26
	str	r5, [sp, #8]
.Ltmp902:
	.loc	11 91 50                @ /usr/bin/../lib/gcc/arm-linux-gnueabihf/6.3.0/../../../../include/c++/6.3.0/bits/stl_vector.h:91:50
	str	r0, [r4, #20]
	beq	.LBB9_8
.Ltmp903:
@ BB#6:
	.loc	7 101 6                 @ /usr/bin/../lib/gcc/arm-linux-gnueabihf/6.3.0/../../../../include/c++/6.3.0/ext/new_allocator.h:101:6
	cmp	r6, r8
	bhi	.LBB9_40
@ BB#7:                                 @ %_ZNSt16allocator_traitsISaISt6vectorIfSaIfEEEE8allocateERS3_j.exit.i.i.i.i.i
	.loc	7 104 27                @ /usr/bin/../lib/gcc/arm-linux-gnueabihf/6.3.0/../../../../include/c++/6.3.0/ext/new_allocator.h:104:27
.Ltmp842:
	.loc	7 104 46 is_stmt 0      @ /usr/bin/../lib/gcc/arm-linux-gnueabihf/6.3.0/../../../../include/c++/6.3.0/ext/new_allocator.h:104:46
	add	r0, r6, r6, lsl #1
	lsl	r0, r0, #2
	.loc	7 104 27                @ /usr/bin/../lib/gcc/arm-linux-gnueabihf/6.3.0/../../../../include/c++/6.3.0/ext/new_allocator.h:104:27
	bl	_Znwj
.Ltmp843:
.Ltmp904:
.LBB9_8:                                @ %_ZNSt12_Vector_baseISt6vectorIfSaIfEESaIS2_EEC2EjRKS3_.exit.i.i
	@DEBUG_VALUE: __uninitialized_fill_n_a<std::vector<float, std::allocator<float> > *, unsigned int, std::vector<float, std::allocator<float> >, std::vector<float, std::allocator<float> > >:__first <- %R0
	.loc	11 187 59 is_stmt 1     @ /usr/bin/../lib/gcc/arm-linux-gnueabihf/6.3.0/../../../../include/c++/6.3.0/bits/stl_vector.h:187:59
	add	r1, r6, r6, lsl #1
	.loc	11 185 25               @ /usr/bin/../lib/gcc/arm-linux-gnueabihf/6.3.0/../../../../include/c++/6.3.0/bits/stl_vector.h:185:25
	str	r0, [r4, #12]
	.loc	11 186 26               @ /usr/bin/../lib/gcc/arm-linux-gnueabihf/6.3.0/../../../../include/c++/6.3.0/bits/stl_vector.h:186:26
	str	r0, [r4, #16]
	.loc	11 187 59               @ /usr/bin/../lib/gcc/arm-linux-gnueabihf/6.3.0/../../../../include/c++/6.3.0/bits/stl_vector.h:187:59
	add	r1, r0, r1, lsl #2
.Ltmp905:
	@DEBUG_VALUE: uninitialized_fill_n<std::vector<float, std::allocator<float> > *, unsigned int, std::vector<float, std::allocator<float> > >:__assignable <- 1
	.loc	11 187 34 is_stmt 0     @ /usr/bin/../lib/gcc/arm-linux-gnueabihf/6.3.0/../../../../include/c++/6.3.0/bits/stl_vector.h:187:34
	str	r1, [r4, #20]
.Ltmp906:
	.loc	58 246 14 is_stmt 1     @ /usr/bin/../lib/gcc/arm-linux-gnueabihf/6.3.0/../../../../include/c++/6.3.0/bits/stl_uninitialized.h:246:14
.Ltmp847:
	add	r2, sp, #4
.Ltmp907:
	@DEBUG_VALUE: uninitialized_fill_n<std::vector<float, std::allocator<float> > *, unsigned int, std::vector<float, std::allocator<float> > >:__x <- %R2
	mov	r1, r6
	bl	_ZNSt22__uninitialized_fill_nILb0EE15__uninit_fill_nIPSt6vectorIfSaIfEEjS4_EET_S6_T0_RKT1_
.Ltmp908:
.Ltmp848:
.Ltmp909:
@ BB#9:
	.loc	11 1298 26              @ /usr/bin/../lib/gcc/arm-linux-gnueabihf/6.3.0/../../../../include/c++/6.3.0/bits/stl_vector.h:1298:26
	str	r0, [r4, #16]
.Ltmp910:
	.loc	11 160 37               @ /usr/bin/../lib/gcc/arm-linux-gnueabihf/6.3.0/../../../../include/c++/6.3.0/bits/stl_vector.h:160:37
	ldr	r0, [sp, #4]
.Ltmp911:
	@DEBUG_VALUE: _M_deallocate:__p <- %R0
	@DEBUG_VALUE: deallocate:__p <- %R0
	@DEBUG_VALUE: deallocate:__p <- %R0
	.loc	11 177 6                @ /usr/bin/../lib/gcc/arm-linux-gnueabihf/6.3.0/../../../../include/c++/6.3.0/bits/stl_vector.h:177:6
	cmp	r0, #0
	beq	.LBB9_11
.Ltmp912:
@ BB#10:
	@DEBUG_VALUE: deallocate:__p <- %R0
	@DEBUG_VALUE: deallocate:__p <- %R0
	@DEBUG_VALUE: _M_deallocate:__p <- %R0
	.loc	7 110 9                 @ /usr/bin/../lib/gcc/arm-linux-gnueabihf/6.3.0/../../../../include/c++/6.3.0/ext/new_allocator.h:110:9
	bl	_ZdlPv
.Ltmp913:
.LBB9_11:                               @ %__cxx_global_var_init.1.exit
	.loc	5 19 23 discriminator 17 @ /root/Bela/projects/frek_domen_filtriranje/render.cpp:19:23
	movw	r0, :lower16:_ZNSt6vectorIS_IfSaIfEESaIS1_EED2Ev
	movw	r2, :lower16:__dso_handle
	add	r1, r4, #12
.Ltmp914:
	@DEBUG_VALUE: _M_fill_initialize:this <- %R1
	movt	r0, :upper16:_ZNSt6vectorIS_IfSaIfEESaIS1_EED2Ev
	movt	r2, :upper16:__dso_handle
	bl	__cxa_atexit
.Ltmp915:
	.loc	5 20 19                 @ /root/Bela/projects/frek_domen_filtriranje/render.cpp:20:19
	ldr	r7, [r4, #4]
.Ltmp916:
	@DEBUG_VALUE: _M_create_storage:__n <- %R7
	@DEBUG_VALUE: _M_allocate:__n <- %R7
	@DEBUG_VALUE: allocate:__n <- %R7
	@DEBUG_VALUE: allocate:__n <- %R7
	@DEBUG_VALUE: _M_default_initialize:__n <- %R7
	@DEBUG_VALUE: __uninitialized_default_n_a<float *, unsigned int, float>:__n <- %R7
	@DEBUG_VALUE: __uninitialized_default_n<float *, unsigned int>:__n <- %R7
	@DEBUG_VALUE: __uninit_default_n<float *, unsigned int>:__n <- %R7
	@DEBUG_VALUE: fill_n<float *, unsigned int, float>:__n <- %R7
	@DEBUG_VALUE: __fill_n_a<float *, unsigned int, float>:__n <- %R7
	@DEBUG_VALUE: __niter <- %R7
	mov	r6, #0
.Ltmp917:
	.loc	11 91 25                @ /usr/bin/../lib/gcc/arm-linux-gnueabihf/6.3.0/../../../../include/c++/6.3.0/bits/stl_vector.h:91:25
	str	r6, [r4, #24]
	.loc	11 91 37 is_stmt 0      @ /usr/bin/../lib/gcc/arm-linux-gnueabihf/6.3.0/../../../../include/c++/6.3.0/bits/stl_vector.h:91:37
	str	r6, [r4, #28]
.Ltmp918:
	.loc	11 170 9 is_stmt 1      @ /usr/bin/../lib/gcc/arm-linux-gnueabihf/6.3.0/../../../../include/c++/6.3.0/bits/stl_vector.h:170:9
	cmp	r7, #0
.Ltmp919:
	@DEBUG_VALUE: _Vector_base:__n <- %R7
	@DEBUG_VALUE: vector:__n <- %R7
	.loc	11 91 50                @ /usr/bin/../lib/gcc/arm-linux-gnueabihf/6.3.0/../../../../include/c++/6.3.0/bits/stl_vector.h:91:50
	str	r6, [r4, #32]
	beq	.LBB9_14
.Ltmp920:
@ BB#12:
	@DEBUG_VALUE: vector:__n <- %R7
	@DEBUG_VALUE: _Vector_base:__n <- %R7
	@DEBUG_VALUE: __niter <- %R7
	@DEBUG_VALUE: __fill_n_a<float *, unsigned int, float>:__n <- %R7
	@DEBUG_VALUE: fill_n<float *, unsigned int, float>:__n <- %R7
	@DEBUG_VALUE: __uninit_default_n<float *, unsigned int>:__n <- %R7
	@DEBUG_VALUE: __uninitialized_default_n<float *, unsigned int>:__n <- %R7
	@DEBUG_VALUE: __uninitialized_default_n_a<float *, unsigned int, float>:__n <- %R7
	@DEBUG_VALUE: _M_default_initialize:__n <- %R7
	@DEBUG_VALUE: allocate:__n <- %R7
	@DEBUG_VALUE: allocate:__n <- %R7
	@DEBUG_VALUE: _M_allocate:__n <- %R7
	@DEBUG_VALUE: _M_create_storage:__n <- %R7
	.loc	7 101 6                 @ /usr/bin/../lib/gcc/arm-linux-gnueabihf/6.3.0/../../../../include/c++/6.3.0/ext/new_allocator.h:101:6
	cmp	r7, #1073741824
	bhs	.LBB9_42
.Ltmp921:
@ BB#13:                                @ %.lr.ph.i.i.preheader.i.i.i.i.i.i
	@DEBUG_VALUE: vector:__n <- %R7
	@DEBUG_VALUE: _Vector_base:__n <- %R7
	@DEBUG_VALUE: __niter <- %R7
	@DEBUG_VALUE: __fill_n_a<float *, unsigned int, float>:__n <- %R7
	@DEBUG_VALUE: fill_n<float *, unsigned int, float>:__n <- %R7
	@DEBUG_VALUE: __uninit_default_n<float *, unsigned int>:__n <- %R7
	@DEBUG_VALUE: __uninitialized_default_n<float *, unsigned int>:__n <- %R7
	@DEBUG_VALUE: __uninitialized_default_n_a<float *, unsigned int, float>:__n <- %R7
	@DEBUG_VALUE: _M_default_initialize:__n <- %R7
	@DEBUG_VALUE: allocate:__n <- %R7
	@DEBUG_VALUE: allocate:__n <- %R7
	@DEBUG_VALUE: _M_allocate:__n <- %R7
	@DEBUG_VALUE: _M_create_storage:__n <- %R7
	.loc	7 104 46                @ /usr/bin/../lib/gcc/arm-linux-gnueabihf/6.3.0/../../../../include/c++/6.3.0/ext/new_allocator.h:104:46
	lsl	r5, r7, #2
	.loc	7 104 27 is_stmt 0      @ /usr/bin/../lib/gcc/arm-linux-gnueabihf/6.3.0/../../../../include/c++/6.3.0/ext/new_allocator.h:104:27
	mov	r0, r5
	bl	_Znwj
.Ltmp922:
	@DEBUG_VALUE: __uninitialized_default_n_a<float *, unsigned int, float>:__first <- %R0
	@DEBUG_VALUE: __uninitialized_default_n<float *, unsigned int>:__first <- %R0
	@DEBUG_VALUE: __uninit_default_n<float *, unsigned int>:__first <- %R0
	@DEBUG_VALUE: fill_n<float *, unsigned int, float>:__first <- %R0
	@DEBUG_VALUE: __fill_n_a<float *, unsigned int, float>:__first <- %R0
	.loc	55 754 11 is_stmt 1     @ /usr/bin/../lib/gcc/arm-linux-gnueabihf/6.3.0/../../../../include/c++/6.3.0/bits/stl_algobase.h:754:11
	mov	r1, #0
	mov	r2, r5
.Ltmp923:
	.loc	11 185 25               @ /usr/bin/../lib/gcc/arm-linux-gnueabihf/6.3.0/../../../../include/c++/6.3.0/bits/stl_vector.h:185:25
	str	r0, [r4, #24]
	.loc	11 187 59               @ /usr/bin/../lib/gcc/arm-linux-gnueabihf/6.3.0/../../../../include/c++/6.3.0/bits/stl_vector.h:187:59
	add	r6, r0, r7, lsl #2
	.loc	11 186 26               @ /usr/bin/../lib/gcc/arm-linux-gnueabihf/6.3.0/../../../../include/c++/6.3.0/bits/stl_vector.h:186:26
	str	r0, [r4, #28]
	.loc	11 187 34               @ /usr/bin/../lib/gcc/arm-linux-gnueabihf/6.3.0/../../../../include/c++/6.3.0/bits/stl_vector.h:187:34
	str	r6, [r4, #32]
.Ltmp924:
	.loc	55 754 11               @ /usr/bin/../lib/gcc/arm-linux-gnueabihf/6.3.0/../../../../include/c++/6.3.0/bits/stl_algobase.h:754:11
	bl	memset
.Ltmp925:
	@DEBUG_VALUE: __uninitialized_default_n<float *, unsigned int>:__assignable <- 1
	b	.LBB9_15
.Ltmp926:
.LBB9_14:                               @ %_ZNSt12_Vector_baseIfSaIfEEC2EjRKS0_.exit.thread.i.i1
	@DEBUG_VALUE: vector:__n <- %R7
	@DEBUG_VALUE: _Vector_base:__n <- %R7
	@DEBUG_VALUE: __niter <- %R7
	@DEBUG_VALUE: __fill_n_a<float *, unsigned int, float>:__n <- %R7
	@DEBUG_VALUE: fill_n<float *, unsigned int, float>:__n <- %R7
	@DEBUG_VALUE: __uninit_default_n<float *, unsigned int>:__n <- %R7
	@DEBUG_VALUE: __uninitialized_default_n<float *, unsigned int>:__n <- %R7
	@DEBUG_VALUE: __uninitialized_default_n_a<float *, unsigned int, float>:__n <- %R7
	@DEBUG_VALUE: _M_default_initialize:__n <- %R7
	@DEBUG_VALUE: allocate:__n <- %R7
	@DEBUG_VALUE: allocate:__n <- %R7
	@DEBUG_VALUE: _M_allocate:__n <- %R7
	@DEBUG_VALUE: _M_create_storage:__n <- %R7
	@DEBUG_VALUE: __uninitialized_default_n<float *, unsigned int>:__assignable <- 1
	.loc	11 185 25               @ /usr/bin/../lib/gcc/arm-linux-gnueabihf/6.3.0/../../../../include/c++/6.3.0/bits/stl_vector.h:185:25
	str	r6, [r4, #24]
	.loc	11 186 26               @ /usr/bin/../lib/gcc/arm-linux-gnueabihf/6.3.0/../../../../include/c++/6.3.0/bits/stl_vector.h:186:26
	str	r6, [r4, #28]
	.loc	11 187 34               @ /usr/bin/../lib/gcc/arm-linux-gnueabihf/6.3.0/../../../../include/c++/6.3.0/bits/stl_vector.h:187:34
	str	r6, [r4, #32]
.Ltmp927:
.LBB9_15:                               @ %__cxx_global_var_init.2.exit
	@DEBUG_VALUE: vector:__n <- %R7
	@DEBUG_VALUE: _Vector_base:__n <- %R7
	@DEBUG_VALUE: __niter <- %R7
	@DEBUG_VALUE: __fill_n_a<float *, unsigned int, float>:__n <- %R7
	@DEBUG_VALUE: fill_n<float *, unsigned int, float>:__n <- %R7
	@DEBUG_VALUE: __uninit_default_n<float *, unsigned int>:__n <- %R7
	@DEBUG_VALUE: __uninitialized_default_n<float *, unsigned int>:__n <- %R7
	@DEBUG_VALUE: __uninitialized_default_n_a<float *, unsigned int, float>:__n <- %R7
	@DEBUG_VALUE: _M_default_initialize:__n <- %R7
	@DEBUG_VALUE: allocate:__n <- %R7
	@DEBUG_VALUE: allocate:__n <- %R7
	@DEBUG_VALUE: _M_allocate:__n <- %R7
	@DEBUG_VALUE: _M_create_storage:__n <- %R7
	.loc	5 20 15 discriminator 6 @ /root/Bela/projects/frek_domen_filtriranje/render.cpp:20:15
	movw	r5, :lower16:__dso_handle
	movw	r0, :lower16:_ZNSt6vectorIfSaIfEED2Ev
	movt	r5, :upper16:__dso_handle
.Ltmp928:
	.loc	11 1308 26              @ /usr/bin/../lib/gcc/arm-linux-gnueabihf/6.3.0/../../../../include/c++/6.3.0/bits/stl_vector.h:1308:26
	add	r1, r4, #24
.Ltmp929:
	@DEBUG_VALUE: _M_default_initialize:this <- %R1
	.loc	5 20 15 discriminator 6 @ /root/Bela/projects/frek_domen_filtriranje/render.cpp:20:15
	movt	r0, :upper16:_ZNSt6vectorIfSaIfEED2Ev
	mov	r2, r5
.Ltmp930:
	.loc	11 1308 26              @ /usr/bin/../lib/gcc/arm-linux-gnueabihf/6.3.0/../../../../include/c++/6.3.0/bits/stl_vector.h:1308:26
	str	r6, [r4, #28]
.Ltmp931:
	.loc	5 20 15 discriminator 6 @ /root/Bela/projects/frek_domen_filtriranje/render.cpp:20:15
	bl	__cxa_atexit
.Ltmp932:
	mov	r7, #0
.Ltmp933:
	@DEBUG_VALUE: Fft:length <- %R1
	.loc	16 56 18                @ ./libraries/Fft/Fft.h:56:18
	mov	r6, r4
.Ltmp934:
	.loc	5 21 8                  @ /root/Bela/projects/frek_domen_filtriranje/render.cpp:21:8
	ldr	r1, [r4, #4]
.Ltmp935:
	.loc	16 56 18                @ ./libraries/Fft/Fft.h:56:18
	str	r7, [r6, #84]!
	.loc	16 57 26                @ ./libraries/Fft/Fft.h:57:26
	str	r7, [r4, #88]
.Ltmp936:
	.loc	16 15 28                @ ./libraries/Fft/Fft.h:15:28
	mov	r0, r6
.Ltmp937:
	.loc	16 58 29                @ ./libraries/Fft/Fft.h:58:29
	str	r7, [r4, #92]
.Ltmp938:
	.loc	16 15 28                @ ./libraries/Fft/Fft.h:15:28
	bl	_ZN3Fft5setupEj
.Ltmp939:
	.loc	5 21 5 discriminator 1  @ /root/Bela/projects/frek_domen_filtriranje/render.cpp:21:5
	movw	r0, :lower16:_ZN3FftD2Ev
	mov	r1, r6
	movt	r0, :upper16:_ZN3FftD2Ev
	mov	r2, r5
	bl	__cxa_atexit
.Ltmp940:
	@DEBUG_VALUE: vector:__n <- %R9
	@DEBUG_VALUE: _Vector_base:__n <- %R9
	@DEBUG_VALUE: _M_create_storage:__n <- %R9
	@DEBUG_VALUE: _M_allocate:__n <- %R9
	@DEBUG_VALUE: allocate:__n <- %R9
	@DEBUG_VALUE: allocate:__n <- %R9
	@DEBUG_VALUE: _M_fill_initialize:__n <- %R9
	@DEBUG_VALUE: __uninitialized_fill_n_a<std::vector<float, std::allocator<float> > *, unsigned int, std::vector<float, std::allocator<float> >, std::vector<float, std::allocator<float> > >:__n <- %R9
	@DEBUG_VALUE: uninitialized_fill_n<std::vector<float, std::allocator<float> > *, unsigned int, std::vector<float, std::allocator<float> > >:__n <- %R9
	.loc	5 22 30                 @ /root/Bela/projects/frek_domen_filtriranje/render.cpp:22:30
	ldr	r9, [r4]
.Ltmp941:
	mov	r0, #1
	ldr	r1, [r4, #4]
.Ltmp942:
	.loc	11 91 25                @ /usr/bin/../lib/gcc/arm-linux-gnueabihf/6.3.0/../../../../include/c++/6.3.0/bits/stl_vector.h:91:25
	str	r7, [sp, #4]
	.loc	11 91 37 is_stmt 0      @ /usr/bin/../lib/gcc/arm-linux-gnueabihf/6.3.0/../../../../include/c++/6.3.0/bits/stl_vector.h:91:37
	str	r7, [sp, #8]
.Ltmp943:
	.loc	5 22 65 is_stmt 1       @ /root/Bela/projects/frek_domen_filtriranje/render.cpp:22:65
	add	r6, r1, r1, lsr #31
.Ltmp944:
	.loc	11 91 50                @ /usr/bin/../lib/gcc/arm-linux-gnueabihf/6.3.0/../../../../include/c++/6.3.0/bits/stl_vector.h:91:50
	str	r7, [sp, #12]
.Ltmp945:
	.loc	5 22 67                 @ /root/Bela/projects/frek_domen_filtriranje/render.cpp:22:67
	add	r5, r0, r6, asr #1
.Ltmp946:
	@DEBUG_VALUE: vector:__n <- %R5
	@DEBUG_VALUE: _Vector_base:__n <- %R5
	@DEBUG_VALUE: _M_create_storage:__n <- %R5
	@DEBUG_VALUE: _M_allocate:__n <- %R5
	@DEBUG_VALUE: allocate:__n <- %R5
	@DEBUG_VALUE: allocate:__n <- %R5
	@DEBUG_VALUE: _M_fill_initialize:__n <- %R5
	@DEBUG_VALUE: __uninitialized_fill_n_a<float *, unsigned int, float, float>:__n <- %R5
	@DEBUG_VALUE: uninitialized_fill_n<float *, unsigned int, float>:__n <- %R5
	@DEBUG_VALUE: __uninit_fill_n<float *, unsigned int, float>:__n <- %R5
	@DEBUG_VALUE: fill_n<float *, unsigned int, float>:__n <- %R5
	@DEBUG_VALUE: __fill_n_a<float *, unsigned int, float>:__n <- %R5
	@DEBUG_VALUE: __niter <- %R5
	.loc	11 170 9                @ /usr/bin/../lib/gcc/arm-linux-gnueabihf/6.3.0/../../../../include/c++/6.3.0/bits/stl_vector.h:170:9
	cmp	r5, #0
.Ltmp947:
	@DEBUG_VALUE: Fft:this <- %R6
	beq	.LBB9_19
.Ltmp948:
@ BB#16:
	@DEBUG_VALUE: Fft:this <- %R6
	@DEBUG_VALUE: __niter <- %R5
	@DEBUG_VALUE: __fill_n_a<float *, unsigned int, float>:__n <- %R5
	@DEBUG_VALUE: fill_n<float *, unsigned int, float>:__n <- %R5
	@DEBUG_VALUE: __uninit_fill_n<float *, unsigned int, float>:__n <- %R5
	@DEBUG_VALUE: uninitialized_fill_n<float *, unsigned int, float>:__n <- %R5
	@DEBUG_VALUE: __uninitialized_fill_n_a<float *, unsigned int, float, float>:__n <- %R5
	@DEBUG_VALUE: _M_fill_initialize:__n <- %R5
	@DEBUG_VALUE: allocate:__n <- %R5
	@DEBUG_VALUE: allocate:__n <- %R5
	@DEBUG_VALUE: _M_allocate:__n <- %R5
	@DEBUG_VALUE: _M_create_storage:__n <- %R5
	@DEBUG_VALUE: _Vector_base:__n <- %R5
	@DEBUG_VALUE: vector:__n <- %R5
	.loc	7 101 6                 @ /usr/bin/../lib/gcc/arm-linux-gnueabihf/6.3.0/../../../../include/c++/6.3.0/ext/new_allocator.h:101:6
	cmp	r5, #1073741824
	bhs	.LBB9_43
.Ltmp949:
@ BB#17:                                @ %.lr.ph.i.i.i.i.i.i.preheader.i.i7
	@DEBUG_VALUE: Fft:this <- %R6
	@DEBUG_VALUE: __niter <- %R5
	@DEBUG_VALUE: __fill_n_a<float *, unsigned int, float>:__n <- %R5
	@DEBUG_VALUE: fill_n<float *, unsigned int, float>:__n <- %R5
	@DEBUG_VALUE: __uninit_fill_n<float *, unsigned int, float>:__n <- %R5
	@DEBUG_VALUE: uninitialized_fill_n<float *, unsigned int, float>:__n <- %R5
	@DEBUG_VALUE: __uninitialized_fill_n_a<float *, unsigned int, float, float>:__n <- %R5
	@DEBUG_VALUE: _M_fill_initialize:__n <- %R5
	@DEBUG_VALUE: allocate:__n <- %R5
	@DEBUG_VALUE: allocate:__n <- %R5
	@DEBUG_VALUE: _M_allocate:__n <- %R5
	@DEBUG_VALUE: _M_create_storage:__n <- %R5
	@DEBUG_VALUE: _Vector_base:__n <- %R5
	@DEBUG_VALUE: vector:__n <- %R5
	.loc	7 104 27                @ /usr/bin/../lib/gcc/arm-linux-gnueabihf/6.3.0/../../../../include/c++/6.3.0/ext/new_allocator.h:104:27
.Ltmp850:
	.loc	7 104 46 is_stmt 0      @ /usr/bin/../lib/gcc/arm-linux-gnueabihf/6.3.0/../../../../include/c++/6.3.0/ext/new_allocator.h:104:46
	lsl	r0, r5, #2
	.loc	7 104 27                @ /usr/bin/../lib/gcc/arm-linux-gnueabihf/6.3.0/../../../../include/c++/6.3.0/ext/new_allocator.h:104:27
	bl	_Znwj
.Ltmp851:
.Ltmp950:
@ BB#18:                                @ %.noexc2.i8
	@DEBUG_VALUE: Fft:this <- %R6
	@DEBUG_VALUE: __niter <- %R5
	@DEBUG_VALUE: __fill_n_a<float *, unsigned int, float>:__n <- %R5
	@DEBUG_VALUE: fill_n<float *, unsigned int, float>:__n <- %R5
	@DEBUG_VALUE: __uninit_fill_n<float *, unsigned int, float>:__n <- %R5
	@DEBUG_VALUE: uninitialized_fill_n<float *, unsigned int, float>:__n <- %R5
	@DEBUG_VALUE: __uninitialized_fill_n_a<float *, unsigned int, float, float>:__n <- %R5
	@DEBUG_VALUE: _M_fill_initialize:__n <- %R5
	@DEBUG_VALUE: allocate:__n <- %R5
	@DEBUG_VALUE: allocate:__n <- %R5
	@DEBUG_VALUE: _M_allocate:__n <- %R5
	@DEBUG_VALUE: _M_create_storage:__n <- %R5
	@DEBUG_VALUE: _Vector_base:__n <- %R5
	@DEBUG_VALUE: vector:__n <- %R5
	.loc	5 22 65 is_stmt 1       @ /root/Bela/projects/frek_domen_filtriranje/render.cpp:22:65
	asr	r1, r6, #1
.Ltmp951:
	@DEBUG_VALUE: __uninitialized_fill_n_a<float *, unsigned int, float, float>:__first <- %R0
	@DEBUG_VALUE: uninitialized_fill_n<float *, unsigned int, float>:__first <- %R0
	@DEBUG_VALUE: __uninit_fill_n<float *, unsigned int, float>:__first <- %R0
	@DEBUG_VALUE: fill_n<float *, unsigned int, float>:__first <- %R0
	@DEBUG_VALUE: __fill_n_a<float *, unsigned int, float>:__first <- %R0
	.loc	11 186 26               @ /usr/bin/../lib/gcc/arm-linux-gnueabihf/6.3.0/../../../../include/c++/6.3.0/bits/stl_vector.h:186:26
	mov	r2, #4
.Ltmp952:
	.loc	55 754 11               @ /usr/bin/../lib/gcc/arm-linux-gnueabihf/6.3.0/../../../../include/c++/6.3.0/bits/stl_algobase.h:754:11
	add	r2, r2, r1, lsl #2
	mov	r1, #0
.Ltmp953:
	.loc	11 185 25               @ /usr/bin/../lib/gcc/arm-linux-gnueabihf/6.3.0/../../../../include/c++/6.3.0/bits/stl_vector.h:185:25
	str	r0, [sp, #4]
	.loc	11 187 59               @ /usr/bin/../lib/gcc/arm-linux-gnueabihf/6.3.0/../../../../include/c++/6.3.0/bits/stl_vector.h:187:59
	add	r7, r0, r5, lsl #2
.Ltmp954:
	@DEBUG_VALUE: uninitialized_fill_n<float *, unsigned int, float>:__assignable <- 1
	.loc	11 186 26               @ /usr/bin/../lib/gcc/arm-linux-gnueabihf/6.3.0/../../../../include/c++/6.3.0/bits/stl_vector.h:186:26
	str	r0, [sp, #8]
	.loc	11 187 34               @ /usr/bin/../lib/gcc/arm-linux-gnueabihf/6.3.0/../../../../include/c++/6.3.0/bits/stl_vector.h:187:34
	str	r7, [sp, #12]
.Ltmp955:
	.loc	55 754 11               @ /usr/bin/../lib/gcc/arm-linux-gnueabihf/6.3.0/../../../../include/c++/6.3.0/bits/stl_algobase.h:754:11
	bl	memset
.Ltmp956:
	b	.LBB9_20
.Ltmp957:
.LBB9_19:                               @ %_ZNSt12_Vector_baseIfSaIfEEC2EjRKS0_.exit.thread.i.i4
	@DEBUG_VALUE: Fft:this <- %R6
	@DEBUG_VALUE: __niter <- %R5
	@DEBUG_VALUE: __fill_n_a<float *, unsigned int, float>:__n <- %R5
	@DEBUG_VALUE: fill_n<float *, unsigned int, float>:__n <- %R5
	@DEBUG_VALUE: __uninit_fill_n<float *, unsigned int, float>:__n <- %R5
	@DEBUG_VALUE: uninitialized_fill_n<float *, unsigned int, float>:__n <- %R5
	@DEBUG_VALUE: __uninitialized_fill_n_a<float *, unsigned int, float, float>:__n <- %R5
	@DEBUG_VALUE: _M_fill_initialize:__n <- %R5
	@DEBUG_VALUE: allocate:__n <- %R5
	@DEBUG_VALUE: allocate:__n <- %R5
	@DEBUG_VALUE: _M_allocate:__n <- %R5
	@DEBUG_VALUE: _M_create_storage:__n <- %R5
	@DEBUG_VALUE: _Vector_base:__n <- %R5
	@DEBUG_VALUE: vector:__n <- %R5
	.loc	11 185 25               @ /usr/bin/../lib/gcc/arm-linux-gnueabihf/6.3.0/../../../../include/c++/6.3.0/bits/stl_vector.h:185:25
	str	r7, [sp, #4]
	.loc	11 186 26               @ /usr/bin/../lib/gcc/arm-linux-gnueabihf/6.3.0/../../../../include/c++/6.3.0/bits/stl_vector.h:186:26
	str	r7, [sp, #8]
	@DEBUG_VALUE: uninitialized_fill_n<float *, unsigned int, float>:__assignable <- 1
	.loc	11 187 34               @ /usr/bin/../lib/gcc/arm-linux-gnueabihf/6.3.0/../../../../include/c++/6.3.0/bits/stl_vector.h:187:34
	str	r7, [sp, #12]
.Ltmp958:
.LBB9_20:                               @ %.loopexit.i10
	@DEBUG_VALUE: Fft:this <- %R6
	@DEBUG_VALUE: __niter <- %R5
	@DEBUG_VALUE: __fill_n_a<float *, unsigned int, float>:__n <- %R5
	@DEBUG_VALUE: fill_n<float *, unsigned int, float>:__n <- %R5
	@DEBUG_VALUE: __uninit_fill_n<float *, unsigned int, float>:__n <- %R5
	@DEBUG_VALUE: uninitialized_fill_n<float *, unsigned int, float>:__n <- %R5
	@DEBUG_VALUE: __uninitialized_fill_n_a<float *, unsigned int, float, float>:__n <- %R5
	@DEBUG_VALUE: _M_fill_initialize:__n <- %R5
	@DEBUG_VALUE: allocate:__n <- %R5
	@DEBUG_VALUE: allocate:__n <- %R5
	@DEBUG_VALUE: _M_allocate:__n <- %R5
	@DEBUG_VALUE: _M_create_storage:__n <- %R5
	@DEBUG_VALUE: _Vector_base:__n <- %R5
	@DEBUG_VALUE: vector:__n <- %R5
	mov	r0, #0
.Ltmp959:
	.loc	11 1298 26              @ /usr/bin/../lib/gcc/arm-linux-gnueabihf/6.3.0/../../../../include/c++/6.3.0/bits/stl_vector.h:1298:26
	str	r7, [sp, #8]
.Ltmp960:
	.loc	11 91 25                @ /usr/bin/../lib/gcc/arm-linux-gnueabihf/6.3.0/../../../../include/c++/6.3.0/bits/stl_vector.h:91:25
	str	r0, [r4, #36]
.Ltmp961:
	.loc	11 170 9                @ /usr/bin/../lib/gcc/arm-linux-gnueabihf/6.3.0/../../../../include/c++/6.3.0/bits/stl_vector.h:170:9
	cmp	r9, #0
.Ltmp962:
	.loc	11 91 37                @ /usr/bin/../lib/gcc/arm-linux-gnueabihf/6.3.0/../../../../include/c++/6.3.0/bits/stl_vector.h:91:37
	str	r0, [r4, #40]
	.loc	11 91 50 is_stmt 0      @ /usr/bin/../lib/gcc/arm-linux-gnueabihf/6.3.0/../../../../include/c++/6.3.0/bits/stl_vector.h:91:50
	str	r0, [r4, #44]
	beq	.LBB9_23
.Ltmp963:
@ BB#21:
	@DEBUG_VALUE: Fft:this <- %R6
	@DEBUG_VALUE: __niter <- %R5
	@DEBUG_VALUE: __fill_n_a<float *, unsigned int, float>:__n <- %R5
	@DEBUG_VALUE: fill_n<float *, unsigned int, float>:__n <- %R5
	@DEBUG_VALUE: __uninit_fill_n<float *, unsigned int, float>:__n <- %R5
	@DEBUG_VALUE: uninitialized_fill_n<float *, unsigned int, float>:__n <- %R5
	@DEBUG_VALUE: __uninitialized_fill_n_a<float *, unsigned int, float, float>:__n <- %R5
	@DEBUG_VALUE: _M_fill_initialize:__n <- %R5
	@DEBUG_VALUE: allocate:__n <- %R5
	@DEBUG_VALUE: allocate:__n <- %R5
	@DEBUG_VALUE: _M_allocate:__n <- %R5
	@DEBUG_VALUE: _M_create_storage:__n <- %R5
	@DEBUG_VALUE: _Vector_base:__n <- %R5
	@DEBUG_VALUE: vector:__n <- %R5
	.loc	7 101 6 is_stmt 1       @ /usr/bin/../lib/gcc/arm-linux-gnueabihf/6.3.0/../../../../include/c++/6.3.0/ext/new_allocator.h:101:6
	cmp	r9, r8
	bhi	.LBB9_45
.Ltmp964:
@ BB#22:                                @ %_ZNSt16allocator_traitsISaISt6vectorIfSaIfEEEE8allocateERS3_j.exit.i.i.i.i.i13
	@DEBUG_VALUE: Fft:this <- %R6
	@DEBUG_VALUE: __niter <- %R5
	@DEBUG_VALUE: __fill_n_a<float *, unsigned int, float>:__n <- %R5
	@DEBUG_VALUE: fill_n<float *, unsigned int, float>:__n <- %R5
	@DEBUG_VALUE: __uninit_fill_n<float *, unsigned int, float>:__n <- %R5
	@DEBUG_VALUE: uninitialized_fill_n<float *, unsigned int, float>:__n <- %R5
	@DEBUG_VALUE: __uninitialized_fill_n_a<float *, unsigned int, float, float>:__n <- %R5
	@DEBUG_VALUE: _M_fill_initialize:__n <- %R5
	@DEBUG_VALUE: allocate:__n <- %R5
	@DEBUG_VALUE: allocate:__n <- %R5
	@DEBUG_VALUE: _M_allocate:__n <- %R5
	@DEBUG_VALUE: _M_create_storage:__n <- %R5
	@DEBUG_VALUE: _Vector_base:__n <- %R5
	@DEBUG_VALUE: vector:__n <- %R5
	.loc	7 104 27                @ /usr/bin/../lib/gcc/arm-linux-gnueabihf/6.3.0/../../../../include/c++/6.3.0/ext/new_allocator.h:104:27
.Ltmp855:
	.loc	7 104 46 is_stmt 0      @ /usr/bin/../lib/gcc/arm-linux-gnueabihf/6.3.0/../../../../include/c++/6.3.0/ext/new_allocator.h:104:46
	add	r0, r9, r9, lsl #1
	lsl	r0, r0, #2
	.loc	7 104 27                @ /usr/bin/../lib/gcc/arm-linux-gnueabihf/6.3.0/../../../../include/c++/6.3.0/ext/new_allocator.h:104:27
	bl	_Znwj
.Ltmp856:
.Ltmp965:
.LBB9_23:                               @ %_ZNSt12_Vector_baseISt6vectorIfSaIfEESaIS2_EEC2EjRKS3_.exit.i.i15
	@DEBUG_VALUE: Fft:this <- %R6
	@DEBUG_VALUE: __niter <- %R5
	@DEBUG_VALUE: __fill_n_a<float *, unsigned int, float>:__n <- %R5
	@DEBUG_VALUE: fill_n<float *, unsigned int, float>:__n <- %R5
	@DEBUG_VALUE: __uninit_fill_n<float *, unsigned int, float>:__n <- %R5
	@DEBUG_VALUE: uninitialized_fill_n<float *, unsigned int, float>:__n <- %R5
	@DEBUG_VALUE: __uninitialized_fill_n_a<float *, unsigned int, float, float>:__n <- %R5
	@DEBUG_VALUE: _M_fill_initialize:__n <- %R5
	@DEBUG_VALUE: allocate:__n <- %R5
	@DEBUG_VALUE: allocate:__n <- %R5
	@DEBUG_VALUE: _M_allocate:__n <- %R5
	@DEBUG_VALUE: _M_create_storage:__n <- %R5
	@DEBUG_VALUE: _Vector_base:__n <- %R5
	@DEBUG_VALUE: vector:__n <- %R5
	@DEBUG_VALUE: __uninitialized_fill_n_a<std::vector<float, std::allocator<float> > *, unsigned int, std::vector<float, std::allocator<float> >, std::vector<float, std::allocator<float> > >:__first <- %R0
	.loc	11 187 59 is_stmt 1     @ /usr/bin/../lib/gcc/arm-linux-gnueabihf/6.3.0/../../../../include/c++/6.3.0/bits/stl_vector.h:187:59
	add	r1, r9, r9, lsl #1
	.loc	11 185 25               @ /usr/bin/../lib/gcc/arm-linux-gnueabihf/6.3.0/../../../../include/c++/6.3.0/bits/stl_vector.h:185:25
	str	r0, [r4, #36]
	.loc	11 186 26               @ /usr/bin/../lib/gcc/arm-linux-gnueabihf/6.3.0/../../../../include/c++/6.3.0/bits/stl_vector.h:186:26
	str	r0, [r4, #40]
	.loc	11 187 59               @ /usr/bin/../lib/gcc/arm-linux-gnueabihf/6.3.0/../../../../include/c++/6.3.0/bits/stl_vector.h:187:59
	add	r1, r0, r1, lsl #2
.Ltmp966:
	@DEBUG_VALUE: uninitialized_fill_n<std::vector<float, std::allocator<float> > *, unsigned int, std::vector<float, std::allocator<float> > >:__assignable <- 1
	.loc	11 187 34 is_stmt 0     @ /usr/bin/../lib/gcc/arm-linux-gnueabihf/6.3.0/../../../../include/c++/6.3.0/bits/stl_vector.h:187:34
	str	r1, [r4, #44]
.Ltmp967:
	.loc	58 246 14 is_stmt 1     @ /usr/bin/../lib/gcc/arm-linux-gnueabihf/6.3.0/../../../../include/c++/6.3.0/bits/stl_uninitialized.h:246:14
.Ltmp860:
	add	r2, sp, #4
.Ltmp968:
	@DEBUG_VALUE: uninitialized_fill_n<std::vector<float, std::allocator<float> > *, unsigned int, std::vector<float, std::allocator<float> > >:__x <- %R2
	mov	r1, r9
	bl	_ZNSt22__uninitialized_fill_nILb0EE15__uninit_fill_nIPSt6vectorIfSaIfEEjS4_EET_S6_T0_RKT1_
.Ltmp969:
.Ltmp861:
.Ltmp970:
@ BB#24:
	@DEBUG_VALUE: Fft:this <- %R6
	@DEBUG_VALUE: __niter <- %R5
	@DEBUG_VALUE: __fill_n_a<float *, unsigned int, float>:__n <- %R5
	@DEBUG_VALUE: fill_n<float *, unsigned int, float>:__n <- %R5
	@DEBUG_VALUE: __uninit_fill_n<float *, unsigned int, float>:__n <- %R5
	@DEBUG_VALUE: uninitialized_fill_n<float *, unsigned int, float>:__n <- %R5
	@DEBUG_VALUE: __uninitialized_fill_n_a<float *, unsigned int, float, float>:__n <- %R5
	@DEBUG_VALUE: _M_fill_initialize:__n <- %R5
	@DEBUG_VALUE: allocate:__n <- %R5
	@DEBUG_VALUE: allocate:__n <- %R5
	@DEBUG_VALUE: _M_allocate:__n <- %R5
	@DEBUG_VALUE: _M_create_storage:__n <- %R5
	@DEBUG_VALUE: _Vector_base:__n <- %R5
	@DEBUG_VALUE: vector:__n <- %R5
	.loc	11 1298 26              @ /usr/bin/../lib/gcc/arm-linux-gnueabihf/6.3.0/../../../../include/c++/6.3.0/bits/stl_vector.h:1298:26
	str	r0, [r4, #40]
.Ltmp971:
	.loc	11 160 37               @ /usr/bin/../lib/gcc/arm-linux-gnueabihf/6.3.0/../../../../include/c++/6.3.0/bits/stl_vector.h:160:37
	ldr	r0, [sp, #4]
.Ltmp972:
	@DEBUG_VALUE: _M_deallocate:__p <- %R0
	@DEBUG_VALUE: deallocate:__p <- %R0
	@DEBUG_VALUE: deallocate:__p <- %R0
	.loc	11 177 6                @ /usr/bin/../lib/gcc/arm-linux-gnueabihf/6.3.0/../../../../include/c++/6.3.0/bits/stl_vector.h:177:6
	cmp	r0, #0
	beq	.LBB9_26
.Ltmp973:
@ BB#25:
	@DEBUG_VALUE: deallocate:__p <- %R0
	@DEBUG_VALUE: deallocate:__p <- %R0
	@DEBUG_VALUE: _M_deallocate:__p <- %R0
	@DEBUG_VALUE: Fft:this <- %R6
	@DEBUG_VALUE: __niter <- %R5
	@DEBUG_VALUE: __fill_n_a<float *, unsigned int, float>:__n <- %R5
	@DEBUG_VALUE: fill_n<float *, unsigned int, float>:__n <- %R5
	@DEBUG_VALUE: __uninit_fill_n<float *, unsigned int, float>:__n <- %R5
	@DEBUG_VALUE: uninitialized_fill_n<float *, unsigned int, float>:__n <- %R5
	@DEBUG_VALUE: __uninitialized_fill_n_a<float *, unsigned int, float, float>:__n <- %R5
	@DEBUG_VALUE: _M_fill_initialize:__n <- %R5
	@DEBUG_VALUE: allocate:__n <- %R5
	@DEBUG_VALUE: allocate:__n <- %R5
