	.text
	.syntax unified
	.eabi_attribute	67, "2.09"	@ Tag_conformance
	.cpu	cortex-a8
	.eabi_attribute	6, 10	@ Tag_CPU_arch
	.eabi_attribute	7, 65	@ Tag_CPU_arch_profile
	.eabi_attribute	8, 1	@ Tag_ARM_ISA_use
	.eabi_attribute	9, 2	@ Tag_THUMB_ISA_use
	.fpu	neon
	.eabi_attribute	17, 1	@ Tag_ABI_PCS_GOT_use
	.eabi_attribute	20, 2	@ Tag_ABI_FP_denormal
	.eabi_attribute	23, 1	@ Tag_ABI_FP_number_model
	.eabi_attribute	34, 1	@ Tag_CPU_unaligned_access
	.eabi_attribute	24, 1	@ Tag_ABI_align_needed
	.eabi_attribute	25, 1	@ Tag_ABI_align_preserved
	.eabi_attribute	28, 1	@ Tag_ABI_VFP_args
	.eabi_attribute	38, 1	@ Tag_ABI_FP_16bit_format
	.eabi_attribute	18, 4	@ Tag_ABI_PCS_wchar_t
	.eabi_attribute	26, 2	@ Tag_ABI_enum_size
	.eabi_attribute	14, 0	@ Tag_ABI_PCS_R9_use
	.eabi_attribute	68, 1	@ Tag_Virtualization_use
	.file	"/root/Bela/projects/Snimanje_transfer_funkcije_sin/build/render.bc"
	.file	1 "/usr/bin/../lib/gcc/arm-linux-gnueabihf/6.3.0/../../../../include/arm-linux-gnueabihf/c++/6.3.0/bits" "c++config.h"
	.file	2 "/usr/bin/../lib/gcc/arm-linux-gnueabihf/6.3.0/../../../../include/c++/6.3.0/bits" "stringfwd.h"
	.file	3 "/root/Bela/projects/Snimanje_transfer_funkcije_sin" "render.cpp"
	.file	4 "/usr/bin/../lib/gcc/arm-linux-gnueabihf/6.3.0/../../../../include/c++/6.3.0/bits" "alloc_traits.h"
	.file	5 "/usr/bin/../lib/gcc/arm-linux-gnueabihf/6.3.0/../../../../include/c++/6.3.0/ext" "new_allocator.h"
	.file	6 "/usr/bin/../lib/gcc/arm-linux-gnueabihf/6.3.0/../../../../include/arm-linux-gnueabihf/c++/6.3.0/bits" "c++allocator.h"
	.file	7 "/usr/bin/../lib/gcc/arm-linux-gnueabihf/6.3.0/../../../../include/c++/6.3.0/bits" "allocator.h"
	.file	8 "/usr/bin/../lib/gcc/arm-linux-gnueabihf/6.3.0/../../../../include/c++/6.3.0/ext" "alloc_traits.h"
	.file	9 "/usr/bin/../lib/gcc/arm-linux-gnueabihf/6.3.0/../../../../include/c++/6.3.0/bits" "stl_vector.h"
	.file	10 "/usr/bin/../lib/gcc/arm-linux-gnueabihf/6.3.0/../../../../include/c++/6.3.0" "type_traits"
	.file	11 "/usr/bin/../lib/gcc/arm-linux-gnueabihf/6.3.0/../../../../include/c++/6.3.0/ext" "concurrence.h"
	.file	12 "/usr/bin/../lib/gcc/arm-linux-gnueabihf/6.3.0/../../../../include/c++/6.3.0/bits" "basic_string.h"
	.file	13 "/usr/bin/../lib/gcc/arm-linux-gnueabihf/6.3.0/../../../../include/c++/6.3.0/bits" "char_traits.h"
	.file	14 "/usr/include/arm-linux-gnueabihf/bits" "math-finite.h"
	.file	15 "/usr/include/arm-linux-gnueabihf/bits" "mathcalls.h"
	.file	16 "/usr/include/arm-linux-gnueabihf/bits" "mathdef.h"
	.file	17 "/usr/bin/../lib/gcc/arm-linux-gnueabihf/6.3.0/../../../../include/c++/6.3.0/debug" "debug.h"
	.file	18 "/usr/include" "wchar.h"
	.file	19 "/usr/lib/llvm-3.9/bin/../lib/clang/3.9.1/include" "stddef.h"
	.file	20 "/usr/include" "libio.h"
	.file	21 "/usr/include/arm-linux-gnueabihf/bits" "types.h"
	.file	22 "/usr/include" "stdio.h"
	.file	23 "/usr/lib/llvm-3.9/bin/../lib/clang/3.9.1/include" "stdarg.h"
	.file	24 "/usr/include" "stdint.h"
	.file	25 "/usr/bin/../lib/gcc/arm-linux-gnueabihf/6.3.0/../../../../include/c++/6.3.0/bits" "exception_ptr.h"
	.file	26 "/usr/include" "locale.h"
	.file	27 "/usr/include" "ctype.h"
	.file	28 "/usr/include" "stdlib.h"
	.file	29 "/usr/include/arm-linux-gnueabihf/bits" "stdlib-float.h"
	.file	30 "/usr/include/arm-linux-gnueabihf/bits" "stdlib-bsearch.h"
	.file	31 "/usr/bin/../lib/gcc/arm-linux-gnueabihf/6.3.0/../../../../include/c++/6.3.0" "cstdlib"
	.file	32 "/usr/include" "_G_config.h"
	.file	33 "/usr/include/arm-linux-gnueabihf/bits" "stdio.h"
	.file	34 "/usr/include" "time.h"
	.section	.text._ZNSt6vectorIfSaIfEED2Ev,"axG",%progbits,_ZNSt6vectorIfSaIfEED2Ev,comdat
	.weak	_ZNSt6vectorIfSaIfEED2Ev
	.p2align	2
	.type	_ZNSt6vectorIfSaIfEED2Ev,%function
_ZNSt6vectorIfSaIfEED2Ev:               @ @_ZNSt6vectorIfSaIfEED2Ev
.Lfunc_begin0:
	.loc	9 426 0                 @ /usr/bin/../lib/gcc/arm-linux-gnueabihf/6.3.0/../../../../include/c++/6.3.0/bits/stl_vector.h:426:0
	.fnstart
	.cfi_startproc
@ BB#0:
	.save	{r4, r10, r11, lr}
	push	{r4, r10, r11, lr}
.Ltmp0:
	.cfi_def_cfa_offset 16
.Ltmp1:
	.cfi_offset lr, -4
.Ltmp2:
	.cfi_offset r11, -8
.Ltmp3:
	.cfi_offset r10, -12
.Ltmp4:
	.cfi_offset r4, -16
	.setfp	r11, sp, #8
	add	r11, sp, #8
.Ltmp5:
	.cfi_def_cfa r11, 8
	@DEBUG_VALUE: ~vector:this <- %R0
	mov	r4, r0
.Ltmp6:
	@DEBUG_VALUE: ~vector:this <- %R4
	.loc	9 160 37 prologue_end   @ /usr/bin/../lib/gcc/arm-linux-gnueabihf/6.3.0/../../../../include/c++/6.3.0/bits/stl_vector.h:160:37
	ldr	r0, [r4]
.Ltmp7:
	@DEBUG_VALUE: _M_deallocate:__p <- %R0
	@DEBUG_VALUE: deallocate:__p <- %R0
	@DEBUG_VALUE: deallocate:__p <- %R0
	.loc	9 177 6                 @ /usr/bin/../lib/gcc/arm-linux-gnueabihf/6.3.0/../../../../include/c++/6.3.0/bits/stl_vector.h:177:6
	cmp	r0, #0
	beq	.LBB0_2
.Ltmp8:
@ BB#1:
	@DEBUG_VALUE: deallocate:__p <- %R0
	@DEBUG_VALUE: deallocate:__p <- %R0
	@DEBUG_VALUE: _M_deallocate:__p <- %R0
	@DEBUG_VALUE: ~vector:this <- %R4
	.loc	5 110 9                 @ /usr/bin/../lib/gcc/arm-linux-gnueabihf/6.3.0/../../../../include/c++/6.3.0/ext/new_allocator.h:110:9
	bl	_ZdlPv
.Ltmp9:
.LBB0_2:                                @ %_ZNSt12_Vector_baseIfSaIfEED2Ev.exit
	@DEBUG_VALUE: ~vector:this <- %R4
	.loc	9 427 33 discriminator 1 @ /usr/bin/../lib/gcc/arm-linux-gnueabihf/6.3.0/../../../../include/c++/6.3.0/bits/stl_vector.h:427:33
	mov	r0, r4
	pop	{r4, r10, r11, pc}
.Ltmp10:
.Lfunc_end0:
	.size	_ZNSt6vectorIfSaIfEED2Ev, .Lfunc_end0-_ZNSt6vectorIfSaIfEED2Ev
	.cfi_endproc
	.fnend

	.text
	.globl	setup
	.p2align	2
	.type	setup,%function
setup:                                  @ @setup
.Lfunc_begin1:
	.loc	3 14 0                  @ /root/Bela/projects/Snimanje_transfer_funkcije_sin/render.cpp:14:0
	.fnstart
	.cfi_startproc
@ BB#0:
	.save	{r4, r5, r6, r10, r11, lr}
	push	{r4, r5, r6, r10, r11, lr}
.Ltmp11:
	.cfi_def_cfa_offset 24
.Ltmp12:
	.cfi_offset lr, -4
.Ltmp13:
	.cfi_offset r11, -8
.Ltmp14:
	.cfi_offset r10, -12
.Ltmp15:
	.cfi_offset r6, -16
.Ltmp16:
	.cfi_offset r5, -20
.Ltmp17:
	.cfi_offset r4, -24
	.setfp	r11, sp, #16
	add	r11, sp, #16
.Ltmp18:
	.cfi_def_cfa r11, 8
	.pad	#24
	sub	sp, sp, #24
	@DEBUG_VALUE: setup:context <- %R0
	@DEBUG_VALUE: setup:userData <- %R1
.Ltmp19:
	.loc	3 15 18 prologue_end discriminator 1 @ /root/Bela/projects/Snimanje_transfer_funkcije_sin/render.cpp:15:18
	movw	r5, :lower16:.L_MergedGlobals
	mov	r4, r0
.Ltmp20:
	@DEBUG_VALUE: setup:context <- %R4
	movt	r5, :upper16:.L_MergedGlobals
	add	r1, r5, #28
.Ltmp21:
	add	r0, sp, #12
.Ltmp22:
	@DEBUG_VALUE: _M_move_assign:__x <- %R0
	@DEBUG_VALUE: operator=:__move_storage <- 1
	@DEBUG_VALUE: operator=:__x <- %R0
	bl	_ZN18AudioFileUtilities8loadMonoERKNSt7__cxx1112basic_stringIcSt11char_traitsIcESaIcEEE
.Ltmp23:
	mov	r6, #0
.Ltmp24:
	.file	35 "/usr/bin/../lib/gcc/arm-linux-gnueabihf/6.3.0/../../../../include/c++/6.3.0/bits" "move.h"
	.loc	35 190 19               @ /usr/bin/../lib/gcc/arm-linux-gnueabihf/6.3.0/../../../../include/c++/6.3.0/bits/move.h:190:19
	ldr	r0, [r5, #16]
.Ltmp25:
	@DEBUG_VALUE: _M_deallocate:__p <- %R0
	@DEBUG_VALUE: deallocate:__p <- %R0
	@DEBUG_VALUE: deallocate:__p <- %R0
	.loc	35 191 13               @ /usr/bin/../lib/gcc/arm-linux-gnueabihf/6.3.0/../../../../include/c++/6.3.0/bits/move.h:191:13
	ldr	r1, [sp, #12]
	.loc	35 192 11               @ /usr/bin/../lib/gcc/arm-linux-gnueabihf/6.3.0/../../../../include/c++/6.3.0/bits/move.h:192:11
	str	r6, [sp, #12]
.Ltmp26:
	.loc	9 177 6                 @ /usr/bin/../lib/gcc/arm-linux-gnueabihf/6.3.0/../../../../include/c++/6.3.0/bits/stl_vector.h:177:6
	cmp	r0, #0
.Ltmp27:
	.loc	35 191 11               @ /usr/bin/../lib/gcc/arm-linux-gnueabihf/6.3.0/../../../../include/c++/6.3.0/bits/move.h:191:11
	str	r1, [r5, #16]
.Ltmp28:
	.loc	35 191 13 is_stmt 0     @ /usr/bin/../lib/gcc/arm-linux-gnueabihf/6.3.0/../../../../include/c++/6.3.0/bits/move.h:191:13
	ldr	r1, [sp, #16]
	.loc	35 192 11 is_stmt 1     @ /usr/bin/../lib/gcc/arm-linux-gnueabihf/6.3.0/../../../../include/c++/6.3.0/bits/move.h:192:11
	str	r6, [sp, #16]
	.loc	35 191 11               @ /usr/bin/../lib/gcc/arm-linux-gnueabihf/6.3.0/../../../../include/c++/6.3.0/bits/move.h:191:11
	str	r1, [r5, #20]
.Ltmp29:
	.loc	35 191 13 is_stmt 0     @ /usr/bin/../lib/gcc/arm-linux-gnueabihf/6.3.0/../../../../include/c++/6.3.0/bits/move.h:191:13
	ldr	r1, [sp, #20]
	.loc	35 191 11               @ /usr/bin/../lib/gcc/arm-linux-gnueabihf/6.3.0/../../../../include/c++/6.3.0/bits/move.h:191:11
	str	r1, [r5, #24]
	.loc	35 192 11 is_stmt 1     @ /usr/bin/../lib/gcc/arm-linux-gnueabihf/6.3.0/../../../../include/c++/6.3.0/bits/move.h:192:11
	str	r6, [sp, #20]
	beq	.LBB1_3
.Ltmp30:
@ BB#1:                                 @ %_ZNSt6vectorIfSaIfEEaSEOS1_.exit
	@DEBUG_VALUE: deallocate:__p <- %R0
	@DEBUG_VALUE: deallocate:__p <- %R0
	@DEBUG_VALUE: _M_deallocate:__p <- %R0
	@DEBUG_VALUE: setup:context <- %R4
	.loc	5 110 9                 @ /usr/bin/../lib/gcc/arm-linux-gnueabihf/6.3.0/../../../../include/c++/6.3.0/ext/new_allocator.h:110:9
	bl	_ZdlPv
.Ltmp31:
	.loc	9 160 37                @ /usr/bin/../lib/gcc/arm-linux-gnueabihf/6.3.0/../../../../include/c++/6.3.0/bits/stl_vector.h:160:37
	ldr	r0, [sp, #12]
.Ltmp32:
	@DEBUG_VALUE: _M_deallocate:__p <- %R0
	@DEBUG_VALUE: deallocate:__p <- %R0
	@DEBUG_VALUE: deallocate:__p <- %R0
	.loc	9 177 6                 @ /usr/bin/../lib/gcc/arm-linux-gnueabihf/6.3.0/../../../../include/c++/6.3.0/bits/stl_vector.h:177:6
	cmp	r0, #0
	beq	.LBB1_3
.Ltmp33:
@ BB#2:
	@DEBUG_VALUE: deallocate:__p <- %R0
	@DEBUG_VALUE: deallocate:__p <- %R0
	@DEBUG_VALUE: _M_deallocate:__p <- %R0
	@DEBUG_VALUE: setup:context <- %R4
	.loc	5 110 9                 @ /usr/bin/../lib/gcc/arm-linux-gnueabihf/6.3.0/../../../../include/c++/6.3.0/ext/new_allocator.h:110:9
	bl	_ZdlPv
.Ltmp34:
.LBB1_3:                                @ %_ZNSt6vectorIfSaIfEED2Ev.exit
	@DEBUG_VALUE: setup:context <- %R4
	.loc	9 656 66                @ /usr/bin/../lib/gcc/arm-linux-gnueabihf/6.3.0/../../../../include/c++/6.3.0/bits/stl_vector.h:656:66
	ldr	r0, [r5, #16]
	ldr	r3, [r5, #20]
.Ltmp35:
	.loc	12 136 28               @ /usr/bin/../lib/gcc/arm-linux-gnueabihf/6.3.0/../../../../include/c++/6.3.0/bits/basic_string.h:136:28
	ldr	r1, [r5, #28]
.Ltmp36:
	.loc	9 656 50                @ /usr/bin/../lib/gcc/arm-linux-gnueabihf/6.3.0/../../../../include/c++/6.3.0/bits/stl_vector.h:656:50
	sub	r0, r3, r0
.Ltmp37:
	.loc	3 17 5                  @ /root/Bela/projects/Snimanje_transfer_funkcije_sin/render.cpp:17:5
	cmp	r6, r0, asr #2
	beq	.LBB1_5
.Ltmp38:
@ BB#4:
	@DEBUG_VALUE: setup:context <- %R4
	.loc	9 656 50                @ /usr/bin/../lib/gcc/arm-linux-gnueabihf/6.3.0/../../../../include/c++/6.3.0/bits/stl_vector.h:656:50
	asr	r2, r0, #2
.Ltmp39:
	.loc	3 24 40                 @ /root/Bela/projects/Snimanje_transfer_funkcije_sin/render.cpp:24:40
	vldr	s0, [r4, #32]
	.loc	3 24 8 is_stmt 0        @ /root/Bela/projects/Snimanje_transfer_funkcije_sin/render.cpp:24:8
	vmov	s2, r2
	.loc	3 22 5 is_stmt 1        @ /root/Bela/projects/Snimanje_transfer_funkcije_sin/render.cpp:22:5
	movw	r0, :lower16:.L.str.3
	.loc	3 24 8                  @ /root/Bela/projects/Snimanje_transfer_funkcije_sin/render.cpp:24:8
	vcvt.f32.u32	d1, d1
	.loc	3 22 5                  @ /root/Bela/projects/Snimanje_transfer_funkcije_sin/render.cpp:22:5
	movt	r0, :upper16:.L.str.3
	.loc	3 24 29                 @ /root/Bela/projects/Snimanje_transfer_funkcije_sin/render.cpp:24:29
	vdiv.f32	s0, s2, s0
	.loc	3 24 8 is_stmt 0        @ /root/Bela/projects/Snimanje_transfer_funkcije_sin/render.cpp:24:8
	vcvt.f64.f32	d16, s0
	.loc	3 22 5 is_stmt 1        @ /root/Bela/projects/Snimanje_transfer_funkcije_sin/render.cpp:22:5
	vstr	d16, [sp]
	bl	rt_printf
	mov	r0, #1
	.loc	3 27 1                  @ /root/Bela/projects/Snimanje_transfer_funkcije_sin/render.cpp:27:1
	sub	sp, r11, #16
	pop	{r4, r5, r6, r10, r11, pc}
.Ltmp40:
.LBB1_5:
	@DEBUG_VALUE: setup:context <- %R4
	.loc	3 18 6 discriminator 1  @ /root/Bela/projects/Snimanje_transfer_funkcije_sin/render.cpp:18:6
	movw	r0, :lower16:.L.str.2
	movt	r0, :upper16:.L.str.2
	bl	rt_printf
	mov	r0, #0
.Ltmp41:
	.loc	3 27 1                  @ /root/Bela/projects/Snimanje_transfer_funkcije_sin/render.cpp:27:1
	sub	sp, r11, #16
	pop	{r4, r5, r6, r10, r11, pc}
.Ltmp42:
.Lfunc_end1:
	.size	setup, .Lfunc_end1-setup
	.cfi_endproc
	.fnend

	.globl	render
	.p2align	3
	.type	render,%function
render:                                 @ @render
.Lfunc_begin2:
	.loc	3 30 0                  @ /root/Bela/projects/Snimanje_transfer_funkcije_sin/render.cpp:30:0
	.fnstart
	.cfi_startproc
@ BB#0:
	.save	{r4, r5, r6, r7, r8, r9, r10, r11, lr}
	push	{r4, r5, r6, r7, r8, r9, r10, r11, lr}
.Ltmp43:
	.cfi_def_cfa_offset 36
.Ltmp44:
	.cfi_offset lr, -4
.Ltmp45:
	.cfi_offset r11, -8
.Ltmp46:
	.cfi_offset r10, -12
.Ltmp47:
	.cfi_offset r9, -16
.Ltmp48:
	.cfi_offset r8, -20
.Ltmp49:
	.cfi_offset r7, -24
.Ltmp50:
	.cfi_offset r6, -28
.Ltmp51:
	.cfi_offset r5, -32
.Ltmp52:
	.cfi_offset r4, -36
	.setfp	r11, sp, #28
	add	r11, sp, #28
.Ltmp53:
	.cfi_def_cfa r11, 8
	.pad	#4
	sub	sp, sp, #4
	.vsave	{d8, d9, d10, d11, d12, d13, d14}
	vpush	{d8, d9, d10, d11, d12, d13, d14}
.Ltmp54:
	.cfi_offset d14, -48
.Ltmp55:
	.cfi_offset d13, -56
.Ltmp56:
	.cfi_offset d12, -64
.Ltmp57:
	.cfi_offset d11, -72
.Ltmp58:
	.cfi_offset d10, -80
.Ltmp59:
	.cfi_offset d9, -88
.Ltmp60:
	.cfi_offset d8, -96
	.pad	#8
	sub	sp, sp, #8
	@DEBUG_VALUE: render:context <- %R0
	@DEBUG_VALUE: render:userData <- %R1
.Ltmp61:
	.loc	3 31 7 prologue_end     @ /root/Bela/projects/Snimanje_transfer_funkcije_sin/render.cpp:31:7
	movw	r5, :lower16:.L_MergedGlobals
	mov	r4, r0
.Ltmp62:
	@DEBUG_VALUE: render:context <- %R4
	movt	r5, :upper16:.L_MergedGlobals
	.loc	3 31 38 is_stmt 0       @ /root/Bela/projects/Snimanje_transfer_funkcije_sin/render.cpp:31:38
	vmov.f32	d16, #1.100000e+01
	.loc	3 31 7                  @ /root/Bela/projects/Snimanje_transfer_funkcije_sin/render.cpp:31:7
	ldr	r0, [r5, #8]
	.loc	3 31 23                 @ /root/Bela/projects/Snimanje_transfer_funkcije_sin/render.cpp:31:23
	vldr	s0, [r4, #32]
	.loc	3 31 7                  @ /root/Bela/projects/Snimanje_transfer_funkcije_sin/render.cpp:31:7
	vmov	s2, r0
	.loc	3 31 38                 @ /root/Bela/projects/Snimanje_transfer_funkcije_sin/render.cpp:31:38
	vmul.f32	d0, d0, d16
	.loc	3 31 7                  @ /root/Bela/projects/Snimanje_transfer_funkcije_sin/render.cpp:31:7
	vcvt.f32.s32	d1, d1
.Ltmp63:
	.loc	3 31 7                  @ /root/Bela/projects/Snimanje_transfer_funkcije_sin/render.cpp:31:7
	vcmpe.f32	s2, s0
	vmrs	APSR_nzcv, fpscr
	ble	.LBB2_2
.Ltmp64:
@ BB#1:
	@DEBUG_VALUE: render:context <- %R4
	@DEBUG_VALUE: render:userData <- %R1
	mov	r0, #0
.Ltmp65:
	.loc	3 32 13 is_stmt 1       @ /root/Bela/projects/Snimanje_transfer_funkcije_sin/render.cpp:32:13
	str	r0, [r5, #8]
	.loc	3 33 14                 @ /root/Bela/projects/Snimanje_transfer_funkcije_sin/render.cpp:33:14
	ldr	r1, [r5, #4]
.Ltmp66:
	add	r1, r1, #1
	.loc	3 34 19                 @ /root/Bela/projects/Snimanje_transfer_funkcije_sin/render.cpp:34:19
	stm	r5, {r0, r1}
	.loc	3 35 7                  @ /root/Bela/projects/Snimanje_transfer_funkcije_sin/render.cpp:35:7
	movw	r0, :lower16:.L.str.4
	movt	r0, :upper16:.L.str.4
	bl	rt_printf
.Ltmp67:
.LBB2_2:                                @ %.preheader27
	@DEBUG_VALUE: render:context <- %R4
	.loc	3 38 40 discriminator 1 @ /root/Bela/projects/Snimanje_transfer_funkcije_sin/render.cpp:38:40
	ldr	r9, [r4, #20]
	.loc	3 38 3 is_stmt 0 discriminator 1 @ /root/Bela/projects/Snimanje_transfer_funkcije_sin/render.cpp:38:3
	cmp	r9, #0
	beq	.LBB2_27
.Ltmp68:
@ BB#3:                                 @ %.lr.ph31
	@DEBUG_VALUE: render:context <- %R4
	.loc	3 48 13 is_stmt 1       @ /root/Bela/projects/Snimanje_transfer_funkcije_sin/render.cpp:48:13
	vmov.f64	d14, #1.200000e+01
.Ltmp69:
	.loc	3 40 8                  @ /root/Bela/projects/Snimanje_transfer_funkcije_sin/render.cpp:40:8
	ldr	r7, [r5, #8]
.Ltmp70:
	.loc	9 781 32                @ /usr/bin/../lib/gcc/arm-linux-gnueabihf/6.3.0/../../../../include/c++/6.3.0/bits/stl_vector.h:781:32
	ldr	r3, [r5, #16]
	mov	r6, #0
	mov	r10, #0
	str	r3, [sp, #4]            @ 4-byte Spill
	str	r9, [sp]                @ 4-byte Spill
.Ltmp71:
	.loc	3 40 39                 @ /root/Bela/projects/Snimanje_transfer_funkcije_sin/render.cpp:40:39
	vmov.f32	d8, #1.000000e+01
.Ltmp72:
	.loc	3 48 62                 @ /root/Bela/projects/Snimanje_transfer_funkcije_sin/render.cpp:48:62
	vldr	d11, .LCPI2_0
.Ltmp73:
	.loc	3 53 44                 @ /root/Bela/projects/Snimanje_transfer_funkcije_sin/render.cpp:53:44
	vmov.f32	d9, #6.000000e+00
.Ltmp74:
	.loc	3 58 36                 @ /root/Bela/projects/Snimanje_transfer_funkcije_sin/render.cpp:58:36
	vmov.f32	d10, #4.000000e+00
	vmov.f32	q6, #4.000000e+00
.Ltmp75:
.LBB2_4:                                @ =>This Loop Header: Depth=1
                                        @     Child Loop BB2_21 Depth 2
                                        @     Child Loop BB2_24 Depth 2
	.loc	3 40 8                  @ /root/Bela/projects/Snimanje_transfer_funkcije_sin/render.cpp:40:8
	vmov	s0, r7
.Ltmp76:
	.loc	3 52 8                  @ /root/Bela/projects/Snimanje_transfer_funkcije_sin/render.cpp:52:8
	ldr	r8, [r5, #4]
.Ltmp77:
	.loc	3 40 8                  @ /root/Bela/projects/Snimanje_transfer_funkcije_sin/render.cpp:40:8
	vcvt.f32.s32	d1, d0
	.loc	3 40 24 is_stmt 0       @ /root/Bela/projects/Snimanje_transfer_funkcije_sin/render.cpp:40:24
	vldr	s0, [r4, #32]
	.loc	3 40 39                 @ /root/Bela/projects/Snimanje_transfer_funkcije_sin/render.cpp:40:39
	vmul.f32	d2, d0, d8
	.loc	3 40 43                 @ /root/Bela/projects/Snimanje_transfer_funkcije_sin/render.cpp:40:43
	vcmpe.f32	s2, s4
	vmrs	APSR_nzcv, fpscr
	bge	.LBB2_7
@ BB#5:                                 @   in Loop: Header=BB2_4 Depth=1
	cmp	r8, #0
	blt	.LBB2_7
@ BB#6:                                 @   in Loop: Header=BB2_4 Depth=1
.Ltmp78:
	.loc	3 41 25 is_stmt 1       @ /root/Bela/projects/Snimanje_transfer_funkcije_sin/render.cpp:41:25
	ldr	r1, [r5]
.Ltmp79:
	@DEBUG_VALUE: operator[]:__n <- %R1
	.loc	3 41 11 is_stmt 0       @ /root/Bela/projects/Snimanje_transfer_funkcije_sin/render.cpp:41:11
	ldr	r0, [r3, r1, lsl #2]
	.loc	3 42 17 is_stmt 1       @ /root/Bela/projects/Snimanje_transfer_funkcije_sin/render.cpp:42:17
	add	r1, r1, #1
.Ltmp80:
	.loc	3 41 9                  @ /root/Bela/projects/Snimanje_transfer_funkcije_sin/render.cpp:41:9
	str	r0, [r5, #12]
	.loc	3 42 17                 @ /root/Bela/projects/Snimanje_transfer_funkcije_sin/render.cpp:42:17
	str	r1, [r5]
	.loc	3 43 4                  @ /root/Bela/projects/Snimanje_transfer_funkcije_sin/render.cpp:43:4
	vmov	d0, r0, r0
	b	.LBB2_9
.Ltmp81:
.LBB2_7:                                @   in Loop: Header=BB2_4 Depth=1
	.loc	3 44 12                 @ /root/Bela/projects/Snimanje_transfer_funkcije_sin/render.cpp:44:12
	cmp	r8, #0
	blt	.LBB2_11
@ BB#8:                                 @   in Loop: Header=BB2_4 Depth=1
	vmov.i32	d0, #0x0
	mov	r0, #0
.Ltmp82:
	.loc	3 45 8                  @ /root/Bela/projects/Snimanje_transfer_funkcije_sin/render.cpp:45:8
	str	r0, [r5, #12]
.Ltmp83:
.LBB2_9:                                @   in Loop: Header=BB2_4 Depth=1
	.loc	3 52 19                 @ /root/Bela/projects/Snimanje_transfer_funkcije_sin/render.cpp:52:19
	cmp	r8, #11
	bhi	.LBB2_12
@ BB#10:                                @   in Loop: Header=BB2_4 Depth=1
	ldr	r1, [r4, #28]
.Ltmp84:
	.loc	3 53 44                 @ /root/Bela/projects/Snimanje_transfer_funkcije_sin/render.cpp:53:44
	vmul.f32	d0, d0, d9
	ldr	r0, [r4, #4]
.Ltmp85:
	.file	36 "./include" "Bela.h"
	.loc	36 1466 54              @ ./include/Bela.h:1466:54
	mla	r1, r1, r10, r8
	.loc	36 1466 2 is_stmt 0     @ ./include/Bela.h:1466:2
	add	r0, r0, r1, lsl #2
	.loc	36 1466 65              @ ./include/Bela.h:1466:65
	vstr	s0, [r0]
	b	.LBB2_26
.Ltmp86:
.LBB2_11:                               @ %.thread
                                        @   in Loop: Header=BB2_4 Depth=1
	.loc	3 48 49 is_stmt 1       @ /root/Bela/projects/Snimanje_transfer_funkcije_sin/render.cpp:48:49
	ldr	r9, [r5]
	.loc	3 48 73 is_stmt 0       @ /root/Bela/projects/Snimanje_transfer_funkcije_sin/render.cpp:48:73
	vcvt.f64.f32	d17, s0
	.loc	3 48 49                 @ /root/Bela/projects/Snimanje_transfer_funkcije_sin/render.cpp:48:49
	vmov	s2, r9
	vcvt.f64.s32	d16, s2
	.loc	3 48 62                 @ /root/Bela/projects/Snimanje_transfer_funkcije_sin/render.cpp:48:62
	vmul.f64	d16, d16, d11
	.loc	3 48 71                 @ /root/Bela/projects/Snimanje_transfer_funkcije_sin/render.cpp:48:71
	vdiv.f64	d0, d16, d17
	.loc	3 48 14                 @ /root/Bela/projects/Snimanje_transfer_funkcije_sin/render.cpp:48:14
	bl	sin
	.loc	3 48 13                 @ /root/Bela/projects/Snimanje_transfer_funkcije_sin/render.cpp:48:13
	vmul.f64	d16, d0, d14
	ldr	r3, [sp, #4]            @ 4-byte Reload
	.loc	3 49 17 is_stmt 1       @ /root/Bela/projects/Snimanje_transfer_funkcije_sin/render.cpp:49:17
	add	r1, r9, #1
	.loc	3 48 11                 @ /root/Bela/projects/Snimanje_transfer_funkcije_sin/render.cpp:48:11
	vcvt.f32.f64	s0, d16
	vmov	r0, s0
	.loc	3 48 9 is_stmt 0        @ /root/Bela/projects/Snimanje_transfer_funkcije_sin/render.cpp:48:9
	vstr	s0, [r5, #12]
	ldr	r9, [sp]                @ 4-byte Reload
	.loc	3 49 17 is_stmt 1       @ /root/Bela/projects/Snimanje_transfer_funkcije_sin/render.cpp:49:17
	str	r1, [r5]
.Ltmp87:
.LBB2_12:                               @   in Loop: Header=BB2_4 Depth=1
	.loc	3 56 16                 @ /root/Bela/projects/Snimanje_transfer_funkcije_sin/render.cpp:56:16
	cmn	r8, #1
	beq	.LBB2_25
@ BB#13:                                @   in Loop: Header=BB2_4 Depth=1
	cmp	r8, #12
	bne	.LBB2_28
@ BB#14:                                @ %.preheader
                                        @   in Loop: Header=BB2_4 Depth=1
.Ltmp88:
	.loc	3 57 50 discriminator 1 @ /root/Bela/projects/Snimanje_transfer_funkcije_sin/render.cpp:57:50
	ldr	r0, [r4, #28]
	.loc	3 57 11 is_stmt 0 discriminator 1 @ /root/Bela/projects/Snimanje_transfer_funkcije_sin/render.cpp:57:11
	cmp	r0, #0
	beq	.LBB2_26
@ BB#15:                                @ %.lr.ph
                                        @   in Loop: Header=BB2_4 Depth=1
.Ltmp89:
	.loc	36 1466 26 is_stmt 1    @ ./include/Bela.h:1466:26
	mul	r1, r0, r10
.Ltmp90:
	.loc	3 58 36                 @ /root/Bela/projects/Snimanje_transfer_funkcije_sin/render.cpp:58:36
	vmul.f32	d0, d0, d10
	ldr	r8, [r4, #4]
.Ltmp91:
	.loc	3 57 11 discriminator 1 @ /root/Bela/projects/Snimanje_transfer_funkcije_sin/render.cpp:57:11
	cmp	r0, #1
.Ltmp92:
	.loc	36 1466 2               @ ./include/Bela.h:1466:2
	add	r1, r8, r1, lsl #2
.Ltmp93:
	@DEBUG_VALUE: ch <- 1
	.loc	36 1466 65 is_stmt 0    @ ./include/Bela.h:1466:65
	vstr	s0, [r1]
	beq	.LBB2_26
.Ltmp94:
@ BB#16:                                @ %._crit_edge.lr.ph
                                        @   in Loop: Header=BB2_4 Depth=1
	.loc	3 57 11 is_stmt 1 discriminator 1 @ /root/Bela/projects/Snimanje_transfer_funkcije_sin/render.cpp:57:11
	sub	lr, r0, #1
	mov	r1, #1
	cmp	lr, #4
	blo	.LBB2_23
@ BB#17:                                @ %min.iters.checked
                                        @   in Loop: Header=BB2_4 Depth=1
	mov	r12, lr
	bfc	r12, #0, #2
	cmp	r12, #0
	beq	.LBB2_23
.Ltmp95:
@ BB#18:                                @ %vector.memcheck
                                        @   in Loop: Header=BB2_4 Depth=1
	.loc	3 40 8                  @ /root/Bela/projects/Snimanje_transfer_funkcije_sin/render.cpp:40:8
	lsl	r2, r10, #2
.Ltmp96:
	.loc	3 57 11 discriminator 1 @ /root/Bela/projects/Snimanje_transfer_funkcije_sin/render.cpp:57:11
	mla	r2, r0, r2, r8
	add	r3, r2, #4
	add	r2, r5, #12
	cmp	r3, r2
	bhs	.LBB2_20
.Ltmp97:
@ BB#19:                                @ %vector.memcheck
                                        @   in Loop: Header=BB2_4 Depth=1
	mov	r3, #4
.Ltmp98:
	.loc	3 40 8                  @ /root/Bela/projects/Snimanje_transfer_funkcije_sin/render.cpp:40:8
	add	r3, r3, r10, lsl #2
.Ltmp99:
	.loc	3 57 11 discriminator 1 @ /root/Bela/projects/Snimanje_transfer_funkcije_sin/render.cpp:57:11
	mla	r3, r0, r3, r8
	cmp	r3, r2
	ldr	r3, [sp, #4]            @ 4-byte Reload
	bhi	.LBB2_23
.LBB2_20:                               @ %vector.body.preheader
                                        @   in Loop: Header=BB2_4 Depth=1
.Ltmp100:
	.loc	3 58 37                 @ /root/Bela/projects/Snimanje_transfer_funkcije_sin/render.cpp:58:37
	vldr	s0, [r5, #12]
.Ltmp101:
	.loc	3 57 11 discriminator 1 @ /root/Bela/projects/Snimanje_transfer_funkcije_sin/render.cpp:57:11
	mla	r2, r0, r6, r8
	orr	r1, r12, #1
.Ltmp102:
	.loc	3 58 36                 @ /root/Bela/projects/Snimanje_transfer_funkcije_sin/render.cpp:58:36
	vmul.f32	q8, q6, d0[0]
.Ltmp103:
	.loc	3 57 11 discriminator 1 @ /root/Bela/projects/Snimanje_transfer_funkcije_sin/render.cpp:57:11
	add	r3, r2, #4
	mov	r2, r12
.LBB2_21:                               @ %vector.body
                                        @   Parent Loop BB2_4 Depth=1
                                        @ =>  This Inner Loop Header: Depth=2
.Ltmp104:
	.loc	36 1466 65              @ ./include/Bela.h:1466:65
	vst1.32	{d16, d17}, [r3]!
.Ltmp105:
	.loc	3 57 11 discriminator 1 @ /root/Bela/projects/Snimanje_transfer_funkcije_sin/render.cpp:57:11
	subs	r2, r2, #4
	bne	.LBB2_21
@ BB#22:                                @ %middle.block
                                        @   in Loop: Header=BB2_4 Depth=1
	ldr	r3, [sp, #4]            @ 4-byte Reload
	cmp	lr, r12
	beq	.LBB2_26
.LBB2_23:                               @ %._crit_edge.preheader
                                        @   in Loop: Header=BB2_4 Depth=1
.Ltmp106:
	.loc	3 58 37                 @ /root/Bela/projects/Snimanje_transfer_funkcije_sin/render.cpp:58:37
	mla	r2, r0, r10, r1
	add	r2, r8, r2, lsl #2
.LBB2_24:                               @ %._crit_edge
                                        @   Parent Loop BB2_4 Depth=1
                                        @ =>  This Inner Loop Header: Depth=2
	vldr	s0, [r5, #12]
.Ltmp107:
	.loc	3 57 70 discriminator 3 @ /root/Bela/projects/Snimanje_transfer_funkcije_sin/render.cpp:57:70
	add	r1, r1, #1
.Ltmp108:
	@DEBUG_VALUE: ch <- %R1
	.loc	3 57 11 is_stmt 0 discriminator 1 @ /root/Bela/projects/Snimanje_transfer_funkcije_sin/render.cpp:57:11
	cmp	r1, r0
.Ltmp109:
	.loc	3 58 36 is_stmt 1       @ /root/Bela/projects/Snimanje_transfer_funkcije_sin/render.cpp:58:36
	vmul.f32	d0, d0, d10
.Ltmp110:
	.loc	36 1466 65              @ ./include/Bela.h:1466:65
	vstmia	r2!, {s0}
	blo	.LBB2_24
	b	.LBB2_26
.Ltmp111:
.LBB2_25:                               @   in Loop: Header=BB2_4 Depth=1
	ldr	r2, [r4, #28]
	ldr	r1, [r4, #4]
.Ltmp112:
	.loc	36 1466 26 is_stmt 0    @ ./include/Bela.h:1466:26
	mul	r2, r2, r10
	.loc	36 1466 65              @ ./include/Bela.h:1466:65
	str	r0, [r1, r2, lsl #2]
.Ltmp113:
.LBB2_26:                               @ %.loopexit
                                        @   in Loop: Header=BB2_4 Depth=1
	.loc	3 69 13 is_stmt 1       @ /root/Bela/projects/Snimanje_transfer_funkcije_sin/render.cpp:69:13
	add	r7, r7, #1
.Ltmp114:
	.loc	3 38 54 discriminator 3 @ /root/Bela/projects/Snimanje_transfer_funkcije_sin/render.cpp:38:54
	add	r10, r10, #1
.Ltmp115:
	@DEBUG_VALUE: n <- %R10
	.loc	3 38 3 is_stmt 0 discriminator 1 @ /root/Bela/projects/Snimanje_transfer_funkcije_sin/render.cpp:38:3
	add	r6, r6, #4
.Ltmp116:
	.loc	3 69 13 is_stmt 1       @ /root/Bela/projects/Snimanje_transfer_funkcije_sin/render.cpp:69:13
	str	r7, [r5, #8]
.Ltmp117:
	.loc	3 38 3 discriminator 1  @ /root/Bela/projects/Snimanje_transfer_funkcije_sin/render.cpp:38:3
	cmp	r10, r9
	blo	.LBB2_4
.Ltmp118:
.LBB2_27:                               @ %.loopexit28
	.loc	3 72 1                  @ /root/Bela/projects/Snimanje_transfer_funkcije_sin/render.cpp:72:1
	sub	sp, r11, #88
	vpop	{d8, d9, d10, d11, d12, d13, d14}
	add	sp, sp, #4
	pop	{r4, r5, r6, r7, r8, r9, r10, r11, pc}
.LBB2_28:
.Ltmp119:
	.loc	3 65 8                  @ /root/Bela/projects/Snimanje_transfer_funkcije_sin/render.cpp:65:8
	sub	sp, r11, #88
	vpop	{d8, d9, d10, d11, d12, d13, d14}
	add	sp, sp, #4
	pop	{r4, r5, r6, r7, r8, r9, r10, r11, lr}
	b	Bela_requestStop
.Ltmp120:
	.p2align	3
@ BB#29:
.LCPI2_0:
	.long	1883935753              @ double 6283.1853071795858
	.long	1085836079
.Lfunc_end2:
	.size	render, .Lfunc_end2-render
	.cfi_endproc
	.fnend

	.globl	cleanup
	.p2align	2
	.type	cleanup,%function
cleanup:                                @ @cleanup
.Lfunc_begin3:
	.loc	3 75 0                  @ /root/Bela/projects/Snimanje_transfer_funkcije_sin/render.cpp:75:0
	.fnstart
	.cfi_startproc
@ BB#0:
	@DEBUG_VALUE: cleanup:context <- %R0
	@DEBUG_VALUE: cleanup:userData <- %R1
	.loc	3 77 1 prologue_end     @ /root/Bela/projects/Snimanje_transfer_funkcije_sin/render.cpp:77:1
	bx	lr
.Ltmp121:
.Lfunc_end3:
	.size	cleanup, .Lfunc_end3-cleanup
	.cfi_endproc
	.fnend

	.section	.text.startup,"ax",%progbits
	.p2align	2
	.type	_GLOBAL__sub_I_render.ii,%function
_GLOBAL__sub_I_render.ii:               @ @_GLOBAL__sub_I_render.ii
.Lfunc_begin4:
	.file	37 "/root/Bela/projects/Snimanje_transfer_funkcije_sin/build" "render.cpp"
	.loc	37 0 0                  @ /root/Bela/projects/Snimanje_transfer_funkcije_sin/build/render.cpp:0:0
	.fnstart
	.cfi_startproc
@ BB#0:
	.save	{r4, r5, r6, r10, r11, lr}
	push	{r4, r5, r6, r10, r11, lr}
.Ltmp122:
	.cfi_def_cfa_offset 24
.Ltmp123:
	.cfi_offset lr, -4
.Ltmp124:
	.cfi_offset r11, -8
.Ltmp125:
	.cfi_offset r10, -12
.Ltmp126:
	.cfi_offset r6, -16
.Ltmp127:
	.cfi_offset r5, -20
.Ltmp128:
	.cfi_offset r4, -24
	.setfp	r11, sp, #16
	add	r11, sp, #16
.Ltmp129:
	.cfi_def_cfa r11, 8
.Ltmp130:
	.loc	12 110 25 prologue_end  @ /usr/bin/../lib/gcc/arm-linux-gnueabihf/6.3.0/../../../../include/c++/6.3.0/bits/basic_string.h:110:25
	movw	r4, :lower16:.L_MergedGlobals
.Ltmp131:
	.loc	3 5 13 discriminator 6  @ /root/Bela/projects/Snimanje_transfer_funkcije_sin/render.cpp:5:13
	movw	r5, :lower16:__dso_handle
.Ltmp132:
	.loc	12 110 25               @ /usr/bin/../lib/gcc/arm-linux-gnueabihf/6.3.0/../../../../include/c++/6.3.0/bits/basic_string.h:110:25
	movt	r4, :upper16:.L_MergedGlobals
	add	r0, r4, #36
.Ltmp133:
	@DEBUG_VALUE: _S_copy:__d <- %R0
	@DEBUG_VALUE: _M_construct<const char *>:__dnew <- 7
	str	r0, [r4, #28]
.Ltmp134:
	.loc	13 290 33               @ /usr/bin/../lib/gcc/arm-linux-gnueabihf/6.3.0/../../../../include/c++/6.3.0/bits/char_traits.h:290:33
	mov	r0, #118
.Ltmp135:
	@DEBUG_VALUE: _S_copy:__n <- 7
	strb	r0, [r4, #42]
	movw	r0, #24951
	strh	r0, [r4, #40]
	movw	r0, #19533
	movt	r0, #11859
.Ltmp136:
	.loc	3 5 13 discriminator 6  @ /root/Bela/projects/Snimanje_transfer_funkcije_sin/render.cpp:5:13
	movt	r5, :upper16:__dso_handle
.Ltmp137:
	.loc	13 290 33               @ /usr/bin/../lib/gcc/arm-linux-gnueabihf/6.3.0/../../../../include/c++/6.3.0/bits/char_traits.h:290:33
	str	r0, [r4, #36]
	mov	r0, #7
.Ltmp138:
	@DEBUG_VALUE: _M_length:__length <- 7
	.loc	12 132 26               @ /usr/bin/../lib/gcc/arm-linux-gnueabihf/6.3.0/../../../../include/c++/6.3.0/bits/basic_string.h:132:26
	str	r0, [r4, #32]
.Ltmp139:
	.loc	3 5 13 discriminator 6  @ /root/Bela/projects/Snimanje_transfer_funkcije_sin/render.cpp:5:13
	movw	r0, :lower16:_ZNSt7__cxx1112basic_stringIcSt11char_traitsIcESaIcEED2Ev
.Ltmp140:
	.loc	12 110 25               @ /usr/bin/../lib/gcc/arm-linux-gnueabihf/6.3.0/../../../../include/c++/6.3.0/bits/basic_string.h:110:25
	add	r1, r4, #28
.Ltmp141:
	@DEBUG_VALUE: _M_length:this <- %R1
	@DEBUG_VALUE: _M_set_length:__n <- 7
	@DEBUG_VALUE: _M_set_length:this <- %R1
	@DEBUG_VALUE: _M_construct<const char *>:this <- %R1
	@DEBUG_VALUE: _M_construct_aux<const char *>:this <- %R1
	@DEBUG_VALUE: _M_construct<const char *>:this <- %R1
	@DEBUG_VALUE: basic_string:this <- %R1
	mov	r6, #0
.Ltmp142:
	.loc	3 5 13 discriminator 6  @ /root/Bela/projects/Snimanje_transfer_funkcije_sin/render.cpp:5:13
	movt	r0, :upper16:_ZNSt7__cxx1112basic_stringIcSt11char_traitsIcESaIcEED2Ev
	mov	r2, r5
.Ltmp143:
	.loc	13 243 14               @ /usr/bin/../lib/gcc/arm-linux-gnueabihf/6.3.0/../../../../include/c++/6.3.0/bits/char_traits.h:243:14
	strb	r6, [r4, #43]
.Ltmp144:
	.loc	3 5 13 discriminator 6  @ /root/Bela/projects/Snimanje_transfer_funkcije_sin/render.cpp:5:13
	bl	__cxa_atexit
.Ltmp145:
	.loc	9 87 22                 @ /usr/bin/../lib/gcc/arm-linux-gnueabihf/6.3.0/../../../../include/c++/6.3.0/bits/stl_vector.h:87:22
	str	r6, [r4, #16]!
.Ltmp146:
	.loc	3 6 20 discriminator 1  @ /root/Bela/projects/Snimanje_transfer_funkcije_sin/render.cpp:6:20
	movw	r0, :lower16:_ZNSt6vectorIfSaIfEED2Ev
	movt	r0, :upper16:_ZNSt6vectorIfSaIfEED2Ev
	mov	r2, r5
.Ltmp147:
	@DEBUG_VALUE: vector:this <- %R4
	.loc	9 87 34                 @ /usr/bin/../lib/gcc/arm-linux-gnueabihf/6.3.0/../../../../include/c++/6.3.0/bits/stl_vector.h:87:34
	str	r6, [r4, #4]
.Ltmp148:
	.loc	3 6 20 discriminator 1  @ /root/Bela/projects/Snimanje_transfer_funkcije_sin/render.cpp:6:20
	mov	r1, r4
.Ltmp149:
	.loc	9 87 47                 @ /usr/bin/../lib/gcc/arm-linux-gnueabihf/6.3.0/../../../../include/c++/6.3.0/bits/stl_vector.h:87:47
	str	r6, [r4, #8]
.Ltmp150:
	.loc	3 6 20 discriminator 1  @ /root/Bela/projects/Snimanje_transfer_funkcije_sin/render.cpp:6:20
	pop	{r4, r5, r6, r10, r11, lr}
.Ltmp151:
	b	__cxa_atexit
.Ltmp152:
.Lfunc_end4:
	.size	_GLOBAL__sub_I_render.ii, .Lfunc_end4-_GLOBAL__sub_I_render.ii
	.cfi_endproc
	.file	38 "/usr/bin/../lib/gcc/arm-linux-gnueabihf/6.3.0/../../../../include/c++/6.3.0/bits" "stl_iterator_base_types.h"
	.file	39 "/usr/bin/../lib/gcc/arm-linux-gnueabihf/6.3.0/../../../../include/c++/6.3.0/bits" "basic_string.tcc"
	.file	40 "/usr/bin/../lib/gcc/arm-linux-gnueabihf/6.3.0/../../../../include/c++/6.3.0/bits" "cpp_type_traits.h"
	.fnend

	.type	.L.str,%object          @ @.str
	.section	.rodata.str1.8,"aMS",%progbits,1
	.p2align	3
.L.str:
	.asciz	"MLS.wav"
	.size	.L.str, 8

	.type	ind,%object             @ @ind
	.bss
	.globl	ind
	.p2align	2
ind:
	.long	0                       @ 0x0
	.size	ind, 4

	.type	.L.str.2,%object        @ @.str.2
	.section	.rodata.str1.1,"aMS",%progbits,1
.L.str.2:
	.asciz	"Error loading audio file '%s'\n"
	.size	.L.str.2, 31

	.type	.L.str.3,%object        @ @.str.3
.L.str.3:
	.asciz	"Loaded the audio file '%s' with %d frames (%.1f seconds)\n"
	.size	.L.str.3, 58

	.type	.L.str.4,%object        @ @.str.4
.L.str.4:
	.asciz	"channel %d\n"
	.size	.L.str.4, 12

	.section	.init_array,"aw",%init_array
	.p2align	2
	.long	_GLOBAL__sub_I_render.ii(target1)
	.type	.L_MergedGlobals,%object @ @_MergedGlobals
	.data
	.p2align	4
.L_MergedGlobals:
	.long	0                       @ 0x0
	.long	4294967295              @ 0xffffffff
	.long	480000                  @ 0x75300
	.long	0                       @ float 0
	.zero	12
	.zero	24
	.size	.L_MergedGlobals, 52

	.section	".note.GNU-stack","",%progbits
	.eabi_attribute	30, 2	@ Tag_ABI_optimization_goals